
ctarget:     file format elf64-x86-64


Disassembly of section .init:

0000000000400bb0 <_init>:
  400bb0:	48 83 ec 08          	sub    $0x8,%rsp
  400bb4:	48 8b 05 3d 34 20 00 	mov    0x20343d(%rip),%rax        # 603ff8 <__gmon_start__>
  400bbb:	48 85 c0             	test   %rax,%rax
  400bbe:	74 05                	je     400bc5 <_init+0x15>
  400bc0:	e8 2b 02 00 00       	callq  400df0 <.plt.got>
  400bc5:	48 83 c4 08          	add    $0x8,%rsp
  400bc9:	c3                   	retq   

Disassembly of section .plt:

0000000000400bd0 <.plt>:
  400bd0:	ff 35 32 34 20 00    	pushq  0x203432(%rip)        # 604008 <_GLOBAL_OFFSET_TABLE_+0x8>
  400bd6:	ff 25 34 34 20 00    	jmpq   *0x203434(%rip)        # 604010 <_GLOBAL_OFFSET_TABLE_+0x10>
  400bdc:	0f 1f 40 00          	nopl   0x0(%rax)

0000000000400be0 <strcasecmp@plt>:
  400be0:	ff 25 32 34 20 00    	jmpq   *0x203432(%rip)        # 604018 <strcasecmp@GLIBC_2.2.5>
  400be6:	68 00 00 00 00       	pushq  $0x0
  400beb:	e9 e0 ff ff ff       	jmpq   400bd0 <.plt>

0000000000400bf0 <__errno_location@plt>:
  400bf0:	ff 25 2a 34 20 00    	jmpq   *0x20342a(%rip)        # 604020 <__errno_location@GLIBC_2.2.5>
  400bf6:	68 01 00 00 00       	pushq  $0x1
  400bfb:	e9 d0 ff ff ff       	jmpq   400bd0 <.plt>

0000000000400c00 <srandom@plt>:
  400c00:	ff 25 22 34 20 00    	jmpq   *0x203422(%rip)        # 604028 <srandom@GLIBC_2.2.5>
  400c06:	68 02 00 00 00       	pushq  $0x2
  400c0b:	e9 c0 ff ff ff       	jmpq   400bd0 <.plt>

0000000000400c10 <strncmp@plt>:
  400c10:	ff 25 1a 34 20 00    	jmpq   *0x20341a(%rip)        # 604030 <strncmp@GLIBC_2.2.5>
  400c16:	68 03 00 00 00       	pushq  $0x3
  400c1b:	e9 b0 ff ff ff       	jmpq   400bd0 <.plt>

0000000000400c20 <strcpy@plt>:
  400c20:	ff 25 12 34 20 00    	jmpq   *0x203412(%rip)        # 604038 <strcpy@GLIBC_2.2.5>
  400c26:	68 04 00 00 00       	pushq  $0x4
  400c2b:	e9 a0 ff ff ff       	jmpq   400bd0 <.plt>

0000000000400c30 <puts@plt>:
  400c30:	ff 25 0a 34 20 00    	jmpq   *0x20340a(%rip)        # 604040 <puts@GLIBC_2.2.5>
  400c36:	68 05 00 00 00       	pushq  $0x5
  400c3b:	e9 90 ff ff ff       	jmpq   400bd0 <.plt>

0000000000400c40 <write@plt>:
  400c40:	ff 25 02 34 20 00    	jmpq   *0x203402(%rip)        # 604048 <write@GLIBC_2.2.5>
  400c46:	68 06 00 00 00       	pushq  $0x6
  400c4b:	e9 80 ff ff ff       	jmpq   400bd0 <.plt>

0000000000400c50 <mmap@plt>:
  400c50:	ff 25 fa 33 20 00    	jmpq   *0x2033fa(%rip)        # 604050 <mmap@GLIBC_2.2.5>
  400c56:	68 07 00 00 00       	pushq  $0x7
  400c5b:	e9 70 ff ff ff       	jmpq   400bd0 <.plt>

0000000000400c60 <printf@plt>:
  400c60:	ff 25 f2 33 20 00    	jmpq   *0x2033f2(%rip)        # 604058 <printf@GLIBC_2.2.5>
  400c66:	68 08 00 00 00       	pushq  $0x8
  400c6b:	e9 60 ff ff ff       	jmpq   400bd0 <.plt>

0000000000400c70 <memset@plt>:
  400c70:	ff 25 ea 33 20 00    	jmpq   *0x2033ea(%rip)        # 604060 <memset@GLIBC_2.2.5>
  400c76:	68 09 00 00 00       	pushq  $0x9
  400c7b:	e9 50 ff ff ff       	jmpq   400bd0 <.plt>

0000000000400c80 <alarm@plt>:
  400c80:	ff 25 e2 33 20 00    	jmpq   *0x2033e2(%rip)        # 604068 <alarm@GLIBC_2.2.5>
  400c86:	68 0a 00 00 00       	pushq  $0xa
  400c8b:	e9 40 ff ff ff       	jmpq   400bd0 <.plt>

0000000000400c90 <close@plt>:
  400c90:	ff 25 da 33 20 00    	jmpq   *0x2033da(%rip)        # 604070 <close@GLIBC_2.2.5>
  400c96:	68 0b 00 00 00       	pushq  $0xb
  400c9b:	e9 30 ff ff ff       	jmpq   400bd0 <.plt>

0000000000400ca0 <read@plt>:
  400ca0:	ff 25 d2 33 20 00    	jmpq   *0x2033d2(%rip)        # 604078 <read@GLIBC_2.2.5>
  400ca6:	68 0c 00 00 00       	pushq  $0xc
  400cab:	e9 20 ff ff ff       	jmpq   400bd0 <.plt>

0000000000400cb0 <__libc_start_main@plt>:
  400cb0:	ff 25 ca 33 20 00    	jmpq   *0x2033ca(%rip)        # 604080 <__libc_start_main@GLIBC_2.2.5>
  400cb6:	68 0d 00 00 00       	pushq  $0xd
  400cbb:	e9 10 ff ff ff       	jmpq   400bd0 <.plt>

0000000000400cc0 <signal@plt>:
  400cc0:	ff 25 c2 33 20 00    	jmpq   *0x2033c2(%rip)        # 604088 <signal@GLIBC_2.2.5>
  400cc6:	68 0e 00 00 00       	pushq  $0xe
  400ccb:	e9 00 ff ff ff       	jmpq   400bd0 <.plt>

0000000000400cd0 <gethostbyname@plt>:
  400cd0:	ff 25 ba 33 20 00    	jmpq   *0x2033ba(%rip)        # 604090 <gethostbyname@GLIBC_2.2.5>
  400cd6:	68 0f 00 00 00       	pushq  $0xf
  400cdb:	e9 f0 fe ff ff       	jmpq   400bd0 <.plt>

0000000000400ce0 <fprintf@plt>:
  400ce0:	ff 25 b2 33 20 00    	jmpq   *0x2033b2(%rip)        # 604098 <fprintf@GLIBC_2.2.5>
  400ce6:	68 10 00 00 00       	pushq  $0x10
  400ceb:	e9 e0 fe ff ff       	jmpq   400bd0 <.plt>

0000000000400cf0 <strtol@plt>:
  400cf0:	ff 25 aa 33 20 00    	jmpq   *0x2033aa(%rip)        # 6040a0 <strtol@GLIBC_2.2.5>
  400cf6:	68 11 00 00 00       	pushq  $0x11
  400cfb:	e9 d0 fe ff ff       	jmpq   400bd0 <.plt>

0000000000400d00 <memcpy@plt>:
  400d00:	ff 25 a2 33 20 00    	jmpq   *0x2033a2(%rip)        # 6040a8 <memcpy@GLIBC_2.14>
  400d06:	68 12 00 00 00       	pushq  $0x12
  400d0b:	e9 c0 fe ff ff       	jmpq   400bd0 <.plt>

0000000000400d10 <time@plt>:
  400d10:	ff 25 9a 33 20 00    	jmpq   *0x20339a(%rip)        # 6040b0 <time@GLIBC_2.2.5>
  400d16:	68 13 00 00 00       	pushq  $0x13
  400d1b:	e9 b0 fe ff ff       	jmpq   400bd0 <.plt>

0000000000400d20 <random@plt>:
  400d20:	ff 25 92 33 20 00    	jmpq   *0x203392(%rip)        # 6040b8 <random@GLIBC_2.2.5>
  400d26:	68 14 00 00 00       	pushq  $0x14
  400d2b:	e9 a0 fe ff ff       	jmpq   400bd0 <.plt>

0000000000400d30 <_IO_getc@plt>:
  400d30:	ff 25 8a 33 20 00    	jmpq   *0x20338a(%rip)        # 6040c0 <_IO_getc@GLIBC_2.2.5>
  400d36:	68 15 00 00 00       	pushq  $0x15
  400d3b:	e9 90 fe ff ff       	jmpq   400bd0 <.plt>

0000000000400d40 <__isoc99_sscanf@plt>:
  400d40:	ff 25 82 33 20 00    	jmpq   *0x203382(%rip)        # 6040c8 <__isoc99_sscanf@GLIBC_2.7>
  400d46:	68 16 00 00 00       	pushq  $0x16
  400d4b:	e9 80 fe ff ff       	jmpq   400bd0 <.plt>

0000000000400d50 <munmap@plt>:
  400d50:	ff 25 7a 33 20 00    	jmpq   *0x20337a(%rip)        # 6040d0 <munmap@GLIBC_2.2.5>
  400d56:	68 17 00 00 00       	pushq  $0x17
  400d5b:	e9 70 fe ff ff       	jmpq   400bd0 <.plt>

0000000000400d60 <bcopy@plt>:
  400d60:	ff 25 72 33 20 00    	jmpq   *0x203372(%rip)        # 6040d8 <bcopy@GLIBC_2.2.5>
  400d66:	68 18 00 00 00       	pushq  $0x18
  400d6b:	e9 60 fe ff ff       	jmpq   400bd0 <.plt>

0000000000400d70 <fopen@plt>:
  400d70:	ff 25 6a 33 20 00    	jmpq   *0x20336a(%rip)        # 6040e0 <fopen@GLIBC_2.2.5>
  400d76:	68 19 00 00 00       	pushq  $0x19
  400d7b:	e9 50 fe ff ff       	jmpq   400bd0 <.plt>

0000000000400d80 <getopt@plt>:
  400d80:	ff 25 62 33 20 00    	jmpq   *0x203362(%rip)        # 6040e8 <getopt@GLIBC_2.2.5>
  400d86:	68 1a 00 00 00       	pushq  $0x1a
  400d8b:	e9 40 fe ff ff       	jmpq   400bd0 <.plt>

0000000000400d90 <strtoul@plt>:
  400d90:	ff 25 5a 33 20 00    	jmpq   *0x20335a(%rip)        # 6040f0 <strtoul@GLIBC_2.2.5>
  400d96:	68 1b 00 00 00       	pushq  $0x1b
  400d9b:	e9 30 fe ff ff       	jmpq   400bd0 <.plt>

0000000000400da0 <gethostname@plt>:
  400da0:	ff 25 52 33 20 00    	jmpq   *0x203352(%rip)        # 6040f8 <gethostname@GLIBC_2.2.5>
  400da6:	68 1c 00 00 00       	pushq  $0x1c
  400dab:	e9 20 fe ff ff       	jmpq   400bd0 <.plt>

0000000000400db0 <sprintf@plt>:
  400db0:	ff 25 4a 33 20 00    	jmpq   *0x20334a(%rip)        # 604100 <sprintf@GLIBC_2.2.5>
  400db6:	68 1d 00 00 00       	pushq  $0x1d
  400dbb:	e9 10 fe ff ff       	jmpq   400bd0 <.plt>

0000000000400dc0 <exit@plt>:
  400dc0:	ff 25 42 33 20 00    	jmpq   *0x203342(%rip)        # 604108 <exit@GLIBC_2.2.5>
  400dc6:	68 1e 00 00 00       	pushq  $0x1e
  400dcb:	e9 00 fe ff ff       	jmpq   400bd0 <.plt>

0000000000400dd0 <connect@plt>:
  400dd0:	ff 25 3a 33 20 00    	jmpq   *0x20333a(%rip)        # 604110 <connect@GLIBC_2.2.5>
  400dd6:	68 1f 00 00 00       	pushq  $0x1f
  400ddb:	e9 f0 fd ff ff       	jmpq   400bd0 <.plt>

0000000000400de0 <socket@plt>:
  400de0:	ff 25 32 33 20 00    	jmpq   *0x203332(%rip)        # 604118 <socket@GLIBC_2.2.5>
  400de6:	68 20 00 00 00       	pushq  $0x20
  400deb:	e9 e0 fd ff ff       	jmpq   400bd0 <.plt>

Disassembly of section .plt.got:

0000000000400df0 <.plt.got>:
  400df0:	ff 25 02 32 20 00    	jmpq   *0x203202(%rip)        # 603ff8 <__gmon_start__>
  400df6:	66 90                	xchg   %ax,%ax

Disassembly of section .text:

0000000000400e00 <_start>:
  400e00:	31 ed                	xor    %ebp,%ebp
  400e02:	49 89 d1             	mov    %rdx,%r9
  400e05:	5e                   	pop    %rsi
  400e06:	48 89 e2             	mov    %rsp,%rdx
  400e09:	48 83 e4 f0          	and    $0xfffffffffffffff0,%rsp
  400e0d:	50                   	push   %rax
  400e0e:	54                   	push   %rsp
  400e0f:	49 c7 c0 50 2b 40 00 	mov    $0x402b50,%r8
  400e16:	48 c7 c1 e0 2a 40 00 	mov    $0x402ae0,%rcx
  400e1d:	48 c7 c7 c0 10 40 00 	mov    $0x4010c0,%rdi
  400e24:	e8 87 fe ff ff       	callq  400cb0 <__libc_start_main@plt>
  400e29:	f4                   	hlt    
  400e2a:	66 0f 1f 44 00 00    	nopw   0x0(%rax,%rax,1)

0000000000400e30 <deregister_tm_clones>:
  400e30:	b8 97 44 60 00       	mov    $0x604497,%eax
  400e35:	55                   	push   %rbp
  400e36:	48 2d 90 44 60 00    	sub    $0x604490,%rax
  400e3c:	48 83 f8 0e          	cmp    $0xe,%rax
  400e40:	48 89 e5             	mov    %rsp,%rbp
  400e43:	77 02                	ja     400e47 <deregister_tm_clones+0x17>
  400e45:	5d                   	pop    %rbp
  400e46:	c3                   	retq   
  400e47:	b8 00 00 00 00       	mov    $0x0,%eax
  400e4c:	48 85 c0             	test   %rax,%rax
  400e4f:	74 f4                	je     400e45 <deregister_tm_clones+0x15>
  400e51:	5d                   	pop    %rbp
  400e52:	bf 90 44 60 00       	mov    $0x604490,%edi
  400e57:	ff e0                	jmpq   *%rax
  400e59:	0f 1f 80 00 00 00 00 	nopl   0x0(%rax)

0000000000400e60 <register_tm_clones>:
  400e60:	b8 90 44 60 00       	mov    $0x604490,%eax
  400e65:	55                   	push   %rbp
  400e66:	48 2d 90 44 60 00    	sub    $0x604490,%rax
  400e6c:	48 c1 f8 03          	sar    $0x3,%rax
  400e70:	48 89 e5             	mov    %rsp,%rbp
  400e73:	48 89 c2             	mov    %rax,%rdx
  400e76:	48 c1 ea 3f          	shr    $0x3f,%rdx
  400e7a:	48 01 d0             	add    %rdx,%rax
  400e7d:	48 d1 f8             	sar    %rax
  400e80:	75 02                	jne    400e84 <register_tm_clones+0x24>
  400e82:	5d                   	pop    %rbp
  400e83:	c3                   	retq   
  400e84:	ba 00 00 00 00       	mov    $0x0,%edx
  400e89:	48 85 d2             	test   %rdx,%rdx
  400e8c:	74 f4                	je     400e82 <register_tm_clones+0x22>
  400e8e:	5d                   	pop    %rbp
  400e8f:	48 89 c6             	mov    %rax,%rsi
  400e92:	bf 90 44 60 00       	mov    $0x604490,%edi
  400e97:	ff e2                	jmpq   *%rdx
  400e99:	0f 1f 80 00 00 00 00 	nopl   0x0(%rax)

0000000000400ea0 <__do_global_dtors_aux>:
  400ea0:	80 3d 11 36 20 00 00 	cmpb   $0x0,0x203611(%rip)        # 6044b8 <completed.6355>
  400ea7:	75 11                	jne    400eba <__do_global_dtors_aux+0x1a>
  400ea9:	55                   	push   %rbp
  400eaa:	48 89 e5             	mov    %rsp,%rbp
  400ead:	e8 7e ff ff ff       	callq  400e30 <deregister_tm_clones>
  400eb2:	5d                   	pop    %rbp
  400eb3:	c6 05 fe 35 20 00 01 	movb   $0x1,0x2035fe(%rip)        # 6044b8 <completed.6355>
  400eba:	f3 c3                	repz retq 
  400ebc:	0f 1f 40 00          	nopl   0x0(%rax)

0000000000400ec0 <frame_dummy>:
  400ec0:	48 83 3d 58 2f 20 00 	cmpq   $0x0,0x202f58(%rip)        # 603e20 <__JCR_END__>
  400ec7:	00 
  400ec8:	74 1e                	je     400ee8 <frame_dummy+0x28>
  400eca:	b8 00 00 00 00       	mov    $0x0,%eax
  400ecf:	48 85 c0             	test   %rax,%rax
  400ed2:	74 14                	je     400ee8 <frame_dummy+0x28>
  400ed4:	55                   	push   %rbp
  400ed5:	bf 20 3e 60 00       	mov    $0x603e20,%edi
  400eda:	48 89 e5             	mov    %rsp,%rbp
  400edd:	ff d0                	callq  *%rax
  400edf:	5d                   	pop    %rbp
  400ee0:	e9 7b ff ff ff       	jmpq   400e60 <register_tm_clones>
  400ee5:	0f 1f 00             	nopl   (%rax)
  400ee8:	e9 73 ff ff ff       	jmpq   400e60 <register_tm_clones>
  400eed:	0f 1f 00             	nopl   (%rax)

0000000000400ef0 <usage>:
  400ef0:	48 83 ec 08          	sub    $0x8,%rsp
  400ef4:	48 89 fe             	mov    %rdi,%rsi
  400ef7:	83 3d ea 35 20 00 00 	cmpl   $0x0,0x2035ea(%rip)        # 6044e8 <is_checker>
  400efe:	74 39                	je     400f39 <usage+0x49>
  400f00:	bf 70 2b 40 00       	mov    $0x402b70,%edi
  400f05:	b8 00 00 00 00       	mov    $0x0,%eax
  400f0a:	e8 51 fd ff ff       	callq  400c60 <printf@plt>
  400f0f:	bf a8 2b 40 00       	mov    $0x402ba8,%edi
  400f14:	e8 17 fd ff ff       	callq  400c30 <puts@plt>
  400f19:	bf 20 2d 40 00       	mov    $0x402d20,%edi
  400f1e:	e8 0d fd ff ff       	callq  400c30 <puts@plt>
  400f23:	bf d0 2b 40 00       	mov    $0x402bd0,%edi
  400f28:	e8 03 fd ff ff       	callq  400c30 <puts@plt>
  400f2d:	bf 3a 2d 40 00       	mov    $0x402d3a,%edi
  400f32:	e8 f9 fc ff ff       	callq  400c30 <puts@plt>
  400f37:	eb 2d                	jmp    400f66 <usage+0x76>
  400f39:	bf 56 2d 40 00       	mov    $0x402d56,%edi
  400f3e:	b8 00 00 00 00       	mov    $0x0,%eax
  400f43:	e8 18 fd ff ff       	callq  400c60 <printf@plt>
  400f48:	bf f8 2b 40 00       	mov    $0x402bf8,%edi
  400f4d:	e8 de fc ff ff       	callq  400c30 <puts@plt>
  400f52:	bf 20 2c 40 00       	mov    $0x402c20,%edi
  400f57:	e8 d4 fc ff ff       	callq  400c30 <puts@plt>
  400f5c:	bf 74 2d 40 00       	mov    $0x402d74,%edi
  400f61:	e8 ca fc ff ff       	callq  400c30 <puts@plt>
  400f66:	bf 00 00 00 00       	mov    $0x0,%edi
  400f6b:	e8 50 fe ff ff       	callq  400dc0 <exit@plt>

0000000000400f70 <initialize_target>:
  400f70:	55                   	push   %rbp
  400f71:	53                   	push   %rbx
  400f72:	48 81 ec 08 21 00 00 	sub    $0x2108,%rsp
  400f79:	89 f5                	mov    %esi,%ebp
  400f7b:	89 3d 57 35 20 00    	mov    %edi,0x203557(%rip)        # 6044d8 <check_level>
  400f81:	8b 3d c1 31 20 00    	mov    0x2031c1(%rip),%edi        # 604148 <target_id>
  400f87:	e8 32 1b 00 00       	callq  402abe <gencookie>
  400f8c:	89 05 52 35 20 00    	mov    %eax,0x203552(%rip)        # 6044e4 <cookie>
  400f92:	89 c7                	mov    %eax,%edi
  400f94:	e8 25 1b 00 00       	callq  402abe <gencookie>
  400f99:	89 05 41 35 20 00    	mov    %eax,0x203541(%rip)        # 6044e0 <authkey>
  400f9f:	8b 05 a3 31 20 00    	mov    0x2031a3(%rip),%eax        # 604148 <target_id>
  400fa5:	8d 78 01             	lea    0x1(%rax),%edi
  400fa8:	e8 53 fc ff ff       	callq  400c00 <srandom@plt>
  400fad:	e8 6e fd ff ff       	callq  400d20 <random@plt>
  400fb2:	89 c7                	mov    %eax,%edi
  400fb4:	e8 ca 02 00 00       	callq  401283 <scramble>
  400fb9:	89 c3                	mov    %eax,%ebx
  400fbb:	85 ed                	test   %ebp,%ebp
  400fbd:	74 18                	je     400fd7 <initialize_target+0x67>
  400fbf:	bf 00 00 00 00       	mov    $0x0,%edi
  400fc4:	e8 47 fd ff ff       	callq  400d10 <time@plt>
  400fc9:	89 c7                	mov    %eax,%edi
  400fcb:	e8 30 fc ff ff       	callq  400c00 <srandom@plt>
  400fd0:	e8 4b fd ff ff       	callq  400d20 <random@plt>
  400fd5:	eb 05                	jmp    400fdc <initialize_target+0x6c>
  400fd7:	b8 00 00 00 00       	mov    $0x0,%eax
  400fdc:	01 c3                	add    %eax,%ebx
  400fde:	0f b7 db             	movzwl %bx,%ebx
  400fe1:	8d 04 dd 00 01 00 00 	lea    0x100(,%rbx,8),%eax
  400fe8:	89 c0                	mov    %eax,%eax
  400fea:	48 89 05 8f 34 20 00 	mov    %rax,0x20348f(%rip)        # 604480 <buf_offset>
  400ff1:	c6 05 10 41 20 00 63 	movb   $0x63,0x204110(%rip)        # 605108 <target_prefix>
  400ff8:	83 3d 89 34 20 00 00 	cmpl   $0x0,0x203489(%rip)        # 604488 <notify>
  400fff:	0f 84 b1 00 00 00    	je     4010b6 <initialize_target+0x146>
  401005:	83 3d dc 34 20 00 00 	cmpl   $0x0,0x2034dc(%rip)        # 6044e8 <is_checker>
  40100c:	0f 85 a4 00 00 00    	jne    4010b6 <initialize_target+0x146>
  401012:	be 00 01 00 00       	mov    $0x100,%esi
  401017:	48 89 e7             	mov    %rsp,%rdi
  40101a:	e8 81 fd ff ff       	callq  400da0 <gethostname@plt>
  40101f:	85 c0                	test   %eax,%eax
  401021:	74 25                	je     401048 <initialize_target+0xd8>
  401023:	bf 50 2c 40 00       	mov    $0x402c50,%edi
  401028:	e8 03 fc ff ff       	callq  400c30 <puts@plt>
  40102d:	bf 08 00 00 00       	mov    $0x8,%edi
  401032:	e8 89 fd ff ff       	callq  400dc0 <exit@plt>
  401037:	48 89 e6             	mov    %rsp,%rsi
  40103a:	e8 a1 fb ff ff       	callq  400be0 <strcasecmp@plt>
  40103f:	85 c0                	test   %eax,%eax
  401041:	74 21                	je     401064 <initialize_target+0xf4>
  401043:	83 c3 01             	add    $0x1,%ebx
  401046:	eb 05                	jmp    40104d <initialize_target+0xdd>
  401048:	bb 00 00 00 00       	mov    $0x0,%ebx
  40104d:	48 63 c3             	movslq %ebx,%rax
  401050:	48 8b 3c c5 60 41 60 	mov    0x604160(,%rax,8),%rdi
  401057:	00 
  401058:	48 85 ff             	test   %rdi,%rdi
  40105b:	75 da                	jne    401037 <initialize_target+0xc7>
  40105d:	b8 00 00 00 00       	mov    $0x0,%eax
  401062:	eb 05                	jmp    401069 <initialize_target+0xf9>
  401064:	b8 01 00 00 00       	mov    $0x1,%eax
  401069:	85 c0                	test   %eax,%eax
  40106b:	75 17                	jne    401084 <initialize_target+0x114>
  40106d:	48 89 e6             	mov    %rsp,%rsi
  401070:	bf 88 2c 40 00       	mov    $0x402c88,%edi
  401075:	e8 e6 fb ff ff       	callq  400c60 <printf@plt>
  40107a:	bf 08 00 00 00       	mov    $0x8,%edi
  40107f:	e8 3c fd ff ff       	callq  400dc0 <exit@plt>
  401084:	48 8d bc 24 00 01 00 	lea    0x100(%rsp),%rdi
  40108b:	00 
  40108c:	e8 a9 17 00 00       	callq  40283a <init_driver>
  401091:	85 c0                	test   %eax,%eax
  401093:	79 21                	jns    4010b6 <initialize_target+0x146>
  401095:	48 8d b4 24 00 01 00 	lea    0x100(%rsp),%rsi
  40109c:	00 
  40109d:	bf c8 2c 40 00       	mov    $0x402cc8,%edi
  4010a2:	b8 00 00 00 00       	mov    $0x0,%eax
  4010a7:	e8 b4 fb ff ff       	callq  400c60 <printf@plt>
  4010ac:	bf 08 00 00 00       	mov    $0x8,%edi
  4010b1:	e8 0a fd ff ff       	callq  400dc0 <exit@plt>
  4010b6:	48 81 c4 08 21 00 00 	add    $0x2108,%rsp
  4010bd:	5b                   	pop    %rbx
  4010be:	5d                   	pop    %rbp
  4010bf:	c3                   	retq   

00000000004010c0 <main>:
  4010c0:	41 56                	push   %r14
  4010c2:	41 55                	push   %r13
  4010c4:	41 54                	push   %r12
  4010c6:	55                   	push   %rbp
  4010c7:	53                   	push   %rbx
  4010c8:	41 89 fc             	mov    %edi,%r12d
  4010cb:	48 89 f3             	mov    %rsi,%rbx
  4010ce:	be 61 1c 40 00       	mov    $0x401c61,%esi
  4010d3:	bf 0b 00 00 00       	mov    $0xb,%edi
  4010d8:	e8 e3 fb ff ff       	callq  400cc0 <signal@plt>
  4010dd:	be 13 1c 40 00       	mov    $0x401c13,%esi
  4010e2:	bf 07 00 00 00       	mov    $0x7,%edi
  4010e7:	e8 d4 fb ff ff       	callq  400cc0 <signal@plt>
  4010ec:	be af 1c 40 00       	mov    $0x401caf,%esi
  4010f1:	bf 04 00 00 00       	mov    $0x4,%edi
  4010f6:	e8 c5 fb ff ff       	callq  400cc0 <signal@plt>
  4010fb:	83 3d e6 33 20 00 00 	cmpl   $0x0,0x2033e6(%rip)        # 6044e8 <is_checker>
  401102:	74 20                	je     401124 <main+0x64>
  401104:	be fd 1c 40 00       	mov    $0x401cfd,%esi
  401109:	bf 0e 00 00 00       	mov    $0xe,%edi
  40110e:	e8 ad fb ff ff       	callq  400cc0 <signal@plt>
  401113:	bf 05 00 00 00       	mov    $0x5,%edi
  401118:	e8 63 fb ff ff       	callq  400c80 <alarm@plt>
  40111d:	bd 92 2d 40 00       	mov    $0x402d92,%ebp
  401122:	eb 05                	jmp    401129 <main+0x69>
  401124:	bd 8d 2d 40 00       	mov    $0x402d8d,%ebp
  401129:	48 8b 05 70 33 20 00 	mov    0x203370(%rip),%rax        # 6044a0 <stdin@@GLIBC_2.2.5>
  401130:	48 89 05 99 33 20 00 	mov    %rax,0x203399(%rip)        # 6044d0 <infile>
  401137:	41 bd 00 00 00 00    	mov    $0x0,%r13d
  40113d:	41 be 00 00 00 00    	mov    $0x0,%r14d
  401143:	e9 b9 00 00 00       	jmpq   401201 <main+0x141>
  401148:	83 e8 61             	sub    $0x61,%eax
  40114b:	3c 10                	cmp    $0x10,%al
  40114d:	0f 87 93 00 00 00    	ja     4011e6 <main+0x126>
  401153:	0f b6 c0             	movzbl %al,%eax
  401156:	ff 24 c5 d8 2d 40 00 	jmpq   *0x402dd8(,%rax,8)
  40115d:	48 8b 3b             	mov    (%rbx),%rdi
  401160:	e8 8b fd ff ff       	callq  400ef0 <usage>
  401165:	be 45 30 40 00       	mov    $0x403045,%esi
  40116a:	48 8b 3d 37 33 20 00 	mov    0x203337(%rip),%rdi        # 6044a8 <optarg@@GLIBC_2.2.5>
  401171:	e8 fa fb ff ff       	callq  400d70 <fopen@plt>
  401176:	48 89 05 53 33 20 00 	mov    %rax,0x203353(%rip)        # 6044d0 <infile>
  40117d:	48 85 c0             	test   %rax,%rax
  401180:	75 7f                	jne    401201 <main+0x141>
  401182:	48 8b 15 1f 33 20 00 	mov    0x20331f(%rip),%rdx        # 6044a8 <optarg@@GLIBC_2.2.5>
  401189:	be 9a 2d 40 00       	mov    $0x402d9a,%esi
  40118e:	48 8b 3d 1b 33 20 00 	mov    0x20331b(%rip),%rdi        # 6044b0 <stderr@@GLIBC_2.2.5>
  401195:	e8 46 fb ff ff       	callq  400ce0 <fprintf@plt>
  40119a:	b8 01 00 00 00       	mov    $0x1,%eax
  40119f:	e9 d6 00 00 00       	jmpq   40127a <main+0x1ba>
  4011a4:	ba 10 00 00 00       	mov    $0x10,%edx
  4011a9:	be 00 00 00 00       	mov    $0x0,%esi
  4011ae:	48 8b 3d f3 32 20 00 	mov    0x2032f3(%rip),%rdi        # 6044a8 <optarg@@GLIBC_2.2.5>
  4011b5:	e8 d6 fb ff ff       	callq  400d90 <strtoul@plt>
  4011ba:	41 89 c6             	mov    %eax,%r14d
  4011bd:	eb 42                	jmp    401201 <main+0x141>
  4011bf:	ba 0a 00 00 00       	mov    $0xa,%edx
  4011c4:	be 00 00 00 00       	mov    $0x0,%esi
  4011c9:	48 8b 3d d8 32 20 00 	mov    0x2032d8(%rip),%rdi        # 6044a8 <optarg@@GLIBC_2.2.5>
  4011d0:	e8 1b fb ff ff       	callq  400cf0 <strtol@plt>
  4011d5:	41 89 c5             	mov    %eax,%r13d
  4011d8:	eb 27                	jmp    401201 <main+0x141>
  4011da:	c7 05 a4 32 20 00 00 	movl   $0x0,0x2032a4(%rip)        # 604488 <notify>
  4011e1:	00 00 00 
  4011e4:	eb 1b                	jmp    401201 <main+0x141>
  4011e6:	40 0f be f6          	movsbl %sil,%esi
  4011ea:	bf b7 2d 40 00       	mov    $0x402db7,%edi
  4011ef:	b8 00 00 00 00       	mov    $0x0,%eax
  4011f4:	e8 67 fa ff ff       	callq  400c60 <printf@plt>
  4011f9:	48 8b 3b             	mov    (%rbx),%rdi
  4011fc:	e8 ef fc ff ff       	callq  400ef0 <usage>
  401201:	48 89 ea             	mov    %rbp,%rdx
  401204:	48 89 de             	mov    %rbx,%rsi
  401207:	44 89 e7             	mov    %r12d,%edi
  40120a:	e8 71 fb ff ff       	callq  400d80 <getopt@plt>
  40120f:	89 c6                	mov    %eax,%esi
  401211:	3c ff                	cmp    $0xff,%al
  401213:	0f 85 2f ff ff ff    	jne    401148 <main+0x88>
  401219:	be 00 00 00 00       	mov    $0x0,%esi
  40121e:	44 89 ef             	mov    %r13d,%edi
  401221:	e8 4a fd ff ff       	callq  400f70 <initialize_target>
  401226:	83 3d bb 32 20 00 00 	cmpl   $0x0,0x2032bb(%rip)        # 6044e8 <is_checker>
  40122d:	74 25                	je     401254 <main+0x194>
  40122f:	44 3b 35 aa 32 20 00 	cmp    0x2032aa(%rip),%r14d        # 6044e0 <authkey>
  401236:	74 1c                	je     401254 <main+0x194>
  401238:	44 89 f6             	mov    %r14d,%esi
  40123b:	bf f0 2c 40 00       	mov    $0x402cf0,%edi
  401240:	b8 00 00 00 00       	mov    $0x0,%eax
  401245:	e8 16 fa ff ff       	callq  400c60 <printf@plt>
  40124a:	b8 00 00 00 00       	mov    $0x0,%eax
  40124f:	e8 c7 06 00 00       	callq  40191b <check_fail>
  401254:	8b 35 8a 32 20 00    	mov    0x20328a(%rip),%esi        # 6044e4 <cookie>
  40125a:	bf ca 2d 40 00       	mov    $0x402dca,%edi
  40125f:	b8 00 00 00 00       	mov    $0x0,%eax
  401264:	e8 f7 f9 ff ff       	callq  400c60 <printf@plt>
  401269:	48 8b 3d 10 32 20 00 	mov    0x203210(%rip),%rdi        # 604480 <buf_offset>
  401270:	e8 57 0b 00 00       	callq  401dcc <stable_launch>
  401275:	b8 00 00 00 00       	mov    $0x0,%eax
  40127a:	5b                   	pop    %rbx
  40127b:	5d                   	pop    %rbp
  40127c:	41 5c                	pop    %r12
  40127e:	41 5d                	pop    %r13
  401280:	41 5e                	pop    %r14
  401282:	c3                   	retq   

0000000000401283 <scramble>:
  401283:	b8 00 00 00 00       	mov    $0x0,%eax
  401288:	eb 11                	jmp    40129b <scramble+0x18>
  40128a:	69 c8 08 c2 00 00    	imul   $0xc208,%eax,%ecx
  401290:	01 f9                	add    %edi,%ecx
  401292:	89 c2                	mov    %eax,%edx
  401294:	89 4c 94 d0          	mov    %ecx,-0x30(%rsp,%rdx,4)
  401298:	83 c0 01             	add    $0x1,%eax
  40129b:	83 f8 09             	cmp    $0x9,%eax
  40129e:	76 ea                	jbe    40128a <scramble+0x7>
  4012a0:	8b 44 24 e8          	mov    -0x18(%rsp),%eax
  4012a4:	69 c0 96 74 00 00    	imul   $0x7496,%eax,%eax
  4012aa:	89 44 24 e8          	mov    %eax,-0x18(%rsp)
  4012ae:	8b 44 24 f4          	mov    -0xc(%rsp),%eax
  4012b2:	69 c0 f2 85 00 00    	imul   $0x85f2,%eax,%eax
  4012b8:	89 44 24 f4          	mov    %eax,-0xc(%rsp)
  4012bc:	8b 44 24 d0          	mov    -0x30(%rsp),%eax
  4012c0:	69 c0 7e 07 00 00    	imul   $0x77e,%eax,%eax
  4012c6:	89 44 24 d0          	mov    %eax,-0x30(%rsp)
  4012ca:	8b 44 24 e0          	mov    -0x20(%rsp),%eax
  4012ce:	69 c0 4f 5d 00 00    	imul   $0x5d4f,%eax,%eax
  4012d4:	89 44 24 e0          	mov    %eax,-0x20(%rsp)
  4012d8:	8b 44 24 f0          	mov    -0x10(%rsp),%eax
  4012dc:	69 c0 a7 62 00 00    	imul   $0x62a7,%eax,%eax
  4012e2:	89 44 24 f0          	mov    %eax,-0x10(%rsp)
  4012e6:	8b 44 24 e0          	mov    -0x20(%rsp),%eax
  4012ea:	69 c0 1a ed 00 00    	imul   $0xed1a,%eax,%eax
  4012f0:	89 44 24 e0          	mov    %eax,-0x20(%rsp)
  4012f4:	8b 44 24 f0          	mov    -0x10(%rsp),%eax
  4012f8:	69 c0 fd 35 00 00    	imul   $0x35fd,%eax,%eax
  4012fe:	89 44 24 f0          	mov    %eax,-0x10(%rsp)
  401302:	8b 44 24 f0          	mov    -0x10(%rsp),%eax
  401306:	69 c0 0f 70 00 00    	imul   $0x700f,%eax,%eax
  40130c:	89 44 24 f0          	mov    %eax,-0x10(%rsp)
  401310:	8b 44 24 e0          	mov    -0x20(%rsp),%eax
  401314:	69 c0 61 be 00 00    	imul   $0xbe61,%eax,%eax
  40131a:	89 44 24 e0          	mov    %eax,-0x20(%rsp)
  40131e:	8b 44 24 f4          	mov    -0xc(%rsp),%eax
  401322:	69 c0 f3 b2 00 00    	imul   $0xb2f3,%eax,%eax
  401328:	89 44 24 f4          	mov    %eax,-0xc(%rsp)
  40132c:	8b 44 24 e4          	mov    -0x1c(%rsp),%eax
  401330:	69 c0 d7 1d 00 00    	imul   $0x1dd7,%eax,%eax
  401336:	89 44 24 e4          	mov    %eax,-0x1c(%rsp)
  40133a:	8b 44 24 dc          	mov    -0x24(%rsp),%eax
  40133e:	69 c0 a6 f1 00 00    	imul   $0xf1a6,%eax,%eax
  401344:	89 44 24 dc          	mov    %eax,-0x24(%rsp)
  401348:	8b 44 24 dc          	mov    -0x24(%rsp),%eax
  40134c:	69 c0 a4 29 00 00    	imul   $0x29a4,%eax,%eax
  401352:	89 44 24 dc          	mov    %eax,-0x24(%rsp)
  401356:	8b 44 24 f0          	mov    -0x10(%rsp),%eax
  40135a:	69 c0 91 e9 00 00    	imul   $0xe991,%eax,%eax
  401360:	89 44 24 f0          	mov    %eax,-0x10(%rsp)
  401364:	8b 44 24 f4          	mov    -0xc(%rsp),%eax
  401368:	69 c0 0c 7b 00 00    	imul   $0x7b0c,%eax,%eax
  40136e:	89 44 24 f4          	mov    %eax,-0xc(%rsp)
  401372:	8b 44 24 d8          	mov    -0x28(%rsp),%eax
  401376:	69 c0 12 77 00 00    	imul   $0x7712,%eax,%eax
  40137c:	89 44 24 d8          	mov    %eax,-0x28(%rsp)
  401380:	8b 44 24 e0          	mov    -0x20(%rsp),%eax
  401384:	69 c0 86 94 00 00    	imul   $0x9486,%eax,%eax
  40138a:	89 44 24 e0          	mov    %eax,-0x20(%rsp)
  40138e:	8b 44 24 e0          	mov    -0x20(%rsp),%eax
  401392:	69 c0 af f8 00 00    	imul   $0xf8af,%eax,%eax
  401398:	89 44 24 e0          	mov    %eax,-0x20(%rsp)
  40139c:	8b 44 24 d0          	mov    -0x30(%rsp),%eax
  4013a0:	69 c0 3d 12 00 00    	imul   $0x123d,%eax,%eax
  4013a6:	89 44 24 d0          	mov    %eax,-0x30(%rsp)
  4013aa:	8b 44 24 d8          	mov    -0x28(%rsp),%eax
  4013ae:	69 c0 1a d6 00 00    	imul   $0xd61a,%eax,%eax
  4013b4:	89 44 24 d8          	mov    %eax,-0x28(%rsp)
  4013b8:	8b 44 24 e0          	mov    -0x20(%rsp),%eax
  4013bc:	69 c0 d8 09 00 00    	imul   $0x9d8,%eax,%eax
  4013c2:	89 44 24 e0          	mov    %eax,-0x20(%rsp)
  4013c6:	8b 44 24 f4          	mov    -0xc(%rsp),%eax
  4013ca:	69 c0 10 e8 00 00    	imul   $0xe810,%eax,%eax
  4013d0:	89 44 24 f4          	mov    %eax,-0xc(%rsp)
  4013d4:	8b 44 24 e0          	mov    -0x20(%rsp),%eax
  4013d8:	69 c0 52 bb 00 00    	imul   $0xbb52,%eax,%eax
  4013de:	89 44 24 e0          	mov    %eax,-0x20(%rsp)
  4013e2:	8b 44 24 e4          	mov    -0x1c(%rsp),%eax
  4013e6:	69 c0 4b 2f 00 00    	imul   $0x2f4b,%eax,%eax
  4013ec:	89 44 24 e4          	mov    %eax,-0x1c(%rsp)
  4013f0:	8b 44 24 f4          	mov    -0xc(%rsp),%eax
  4013f4:	69 c0 68 58 00 00    	imul   $0x5868,%eax,%eax
  4013fa:	89 44 24 f4          	mov    %eax,-0xc(%rsp)
  4013fe:	8b 44 24 f0          	mov    -0x10(%rsp),%eax
  401402:	69 c0 04 32 00 00    	imul   $0x3204,%eax,%eax
  401408:	89 44 24 f0          	mov    %eax,-0x10(%rsp)
  40140c:	8b 44 24 e8          	mov    -0x18(%rsp),%eax
  401410:	69 c0 0a e4 00 00    	imul   $0xe40a,%eax,%eax
  401416:	89 44 24 e8          	mov    %eax,-0x18(%rsp)
  40141a:	8b 44 24 e8          	mov    -0x18(%rsp),%eax
  40141e:	69 c0 1b d1 00 00    	imul   $0xd11b,%eax,%eax
  401424:	89 44 24 e8          	mov    %eax,-0x18(%rsp)
  401428:	8b 44 24 e0          	mov    -0x20(%rsp),%eax
  40142c:	69 c0 7d fc 00 00    	imul   $0xfc7d,%eax,%eax
  401432:	89 44 24 e0          	mov    %eax,-0x20(%rsp)
  401436:	8b 44 24 ec          	mov    -0x14(%rsp),%eax
  40143a:	69 c0 b8 c2 00 00    	imul   $0xc2b8,%eax,%eax
  401440:	89 44 24 ec          	mov    %eax,-0x14(%rsp)
  401444:	8b 44 24 d8          	mov    -0x28(%rsp),%eax
  401448:	69 c0 84 73 00 00    	imul   $0x7384,%eax,%eax
  40144e:	89 44 24 d8          	mov    %eax,-0x28(%rsp)
  401452:	8b 44 24 e0          	mov    -0x20(%rsp),%eax
  401456:	69 c0 2c 67 00 00    	imul   $0x672c,%eax,%eax
  40145c:	89 44 24 e0          	mov    %eax,-0x20(%rsp)
  401460:	8b 44 24 e4          	mov    -0x1c(%rsp),%eax
  401464:	69 c0 ce 36 00 00    	imul   $0x36ce,%eax,%eax
  40146a:	89 44 24 e4          	mov    %eax,-0x1c(%rsp)
  40146e:	8b 44 24 e4          	mov    -0x1c(%rsp),%eax
  401472:	69 c0 0e a4 00 00    	imul   $0xa40e,%eax,%eax
  401478:	89 44 24 e4          	mov    %eax,-0x1c(%rsp)
  40147c:	8b 44 24 d0          	mov    -0x30(%rsp),%eax
  401480:	69 c0 da b5 00 00    	imul   $0xb5da,%eax,%eax
  401486:	89 44 24 d0          	mov    %eax,-0x30(%rsp)
  40148a:	8b 44 24 f0          	mov    -0x10(%rsp),%eax
  40148e:	69 c0 ef bd 00 00    	imul   $0xbdef,%eax,%eax
  401494:	89 44 24 f0          	mov    %eax,-0x10(%rsp)
  401498:	8b 44 24 f0          	mov    -0x10(%rsp),%eax
  40149c:	69 c0 5c 3d 00 00    	imul   $0x3d5c,%eax,%eax
  4014a2:	89 44 24 f0          	mov    %eax,-0x10(%rsp)
  4014a6:	8b 44 24 f0          	mov    -0x10(%rsp),%eax
  4014aa:	69 c0 88 ff 00 00    	imul   $0xff88,%eax,%eax
  4014b0:	89 44 24 f0          	mov    %eax,-0x10(%rsp)
  4014b4:	8b 44 24 f4          	mov    -0xc(%rsp),%eax
  4014b8:	69 c0 20 fe 00 00    	imul   $0xfe20,%eax,%eax
  4014be:	89 44 24 f4          	mov    %eax,-0xc(%rsp)
  4014c2:	8b 44 24 e0          	mov    -0x20(%rsp),%eax
  4014c6:	69 c0 62 72 00 00    	imul   $0x7262,%eax,%eax
  4014cc:	89 44 24 e0          	mov    %eax,-0x20(%rsp)
  4014d0:	8b 44 24 d0          	mov    -0x30(%rsp),%eax
  4014d4:	69 c0 12 11 00 00    	imul   $0x1112,%eax,%eax
  4014da:	89 44 24 d0          	mov    %eax,-0x30(%rsp)
  4014de:	8b 44 24 e0          	mov    -0x20(%rsp),%eax
  4014e2:	69 c0 c8 cc 00 00    	imul   $0xccc8,%eax,%eax
  4014e8:	89 44 24 e0          	mov    %eax,-0x20(%rsp)
  4014ec:	8b 44 24 e4          	mov    -0x1c(%rsp),%eax
  4014f0:	69 c0 11 c8 00 00    	imul   $0xc811,%eax,%eax
  4014f6:	89 44 24 e4          	mov    %eax,-0x1c(%rsp)
  4014fa:	8b 44 24 d0          	mov    -0x30(%rsp),%eax
  4014fe:	69 c0 ca 02 00 00    	imul   $0x2ca,%eax,%eax
  401504:	89 44 24 d0          	mov    %eax,-0x30(%rsp)
  401508:	8b 44 24 e8          	mov    -0x18(%rsp),%eax
  40150c:	69 c0 90 58 00 00    	imul   $0x5890,%eax,%eax
  401512:	89 44 24 e8          	mov    %eax,-0x18(%rsp)
  401516:	8b 44 24 f0          	mov    -0x10(%rsp),%eax
  40151a:	69 c0 18 3c 00 00    	imul   $0x3c18,%eax,%eax
  401520:	89 44 24 f0          	mov    %eax,-0x10(%rsp)
  401524:	8b 44 24 d8          	mov    -0x28(%rsp),%eax
          irmovq $8, %r8
          irmovq $8, %r8
          irmovq $1, %r9
          irmovq $1, %r9
  401528:	69 c0 4c ff 00 00    	imul   $0xff4c,%eax,%eax
  40152e:	89 44 24 d8          	mov    %eax,-0x28(%rsp)
  401532:	8b 44 24 f4          	mov    -0xc(%rsp),%eax
  401536:	69 c0 1e d4 00 00    	imul   $0xd41e,%eax,%eax
  40153c:	89 44 24 f4          	mov    %eax,-0xc(%rsp)
  401540:	8b 44 24 e0          	mov    -0x20(%rsp),%eax
  401544:	69 c0 1f 03 00 00    	imul   $0x31f,%eax,%eax
  40154a:	89 44 24 e0          	mov    %eax,-0x20(%rsp)
  40154e:	8b 44 24 ec          	mov    -0x14(%rsp),%eax
  401552:	69 c0 26 7f 00 00    	imul   $0x7f26,%eax,%eax
  401558:	89 44 24 ec          	mov    %eax,-0x14(%rsp)
  40155c:	8b 44 24 e8          	mov    -0x18(%rsp),%eax
  401560:	69 c0 54 f2 00 00    	imul   $0xf254,%eax,%eax
  401566:	89 44 24 e8          	mov    %eax,-0x18(%rsp)
  40156a:	8b 44 24 d0          	mov    -0x30(%rsp),%eax
  40156e:	69 c0 ac 78 00 00    	imul   $0x78ac,%eax,%eax
  401574:	89 44 24 d0          	mov    %eax,-0x30(%rsp)
  401578:	8b 44 24 e8          	mov    -0x18(%rsp),%eax
  40157c:	69 c0 16 e3 00 00    	imul   $0xe316,%eax,%eax
  401582:	89 44 24 e8          	mov    %eax,-0x18(%rsp)
  401586:	8b 44 24 e8          	mov    -0x18(%rsp),%eax
  40158a:	69 c0 5e 28 00 00    	imul   $0x285e,%eax,%eax
  401590:	89 44 24 e8          	mov    %eax,-0x18(%rsp)
  401594:	8b 44 24 e8          	mov    -0x18(%rsp),%eax
  401598:	69 c0 07 a7 00 00    	imul   $0xa707,%eax,%eax
  40159e:	89 44 24 e8          	mov    %eax,-0x18(%rsp)
  4015a2:	8b 44 24 e8          	mov    -0x18(%rsp),%eax
  4015a6:	69 c0 be 37 00 00    	imul   $0x37be,%eax,%eax
  4015ac:	89 44 24 e8          	mov    %eax,-0x18(%rsp)
  4015b0:	8b 44 24 e4          	mov    -0x1c(%rsp),%eax
  4015b4:	69 c0 27 3f 00 00    	imul   $0x3f27,%eax,%eax
  4015ba:	89 44 24 e4          	mov    %eax,-0x1c(%rsp)
  4015be:	8b 44 24 f0          	mov    -0x10(%rsp),%eax
  4015c2:	69 c0 36 ad 00 00    	imul   $0xad36,%eax,%eax
  4015c8:	89 44 24 f0          	mov    %eax,-0x10(%rsp)
  4015cc:	8b 44 24 e4          	mov    -0x1c(%rsp),%eax
  4015d0:	69 c0 6a a2 00 00    	imul   $0xa26a,%eax,%eax
  4015d6:	89 44 24 e4          	mov    %eax,-0x1c(%rsp)
  4015da:	8b 44 24 e8          	mov    -0x18(%rsp),%eax
  4015de:	69 c0 c6 cb 00 00    	imul   $0xcbc6,%eax,%eax
  4015e4:	89 44 24 e8          	mov    %eax,-0x18(%rsp)
  4015e8:	8b 44 24 d0          	mov    -0x30(%rsp),%eax
  4015ec:	69 c0 83 75 00 00    	imul   $0x7583,%eax,%eax
  4015f2:	89 44 24 d0          	mov    %eax,-0x30(%rsp)
  4015f6:	8b 44 24 e0          	mov    -0x20(%rsp),%eax
  4015fa:	69 c0 0e c7 00 00    	imul   $0xc70e,%eax,%eax
  401600:	89 44 24 e0          	mov    %eax,-0x20(%rsp)
  401604:	8b 44 24 d0          	mov    -0x30(%rsp),%eax
  401608:	69 c0 22 ab 00 00    	imul   $0xab22,%eax,%eax
  40160e:	89 44 24 d0          	mov    %eax,-0x30(%rsp)
  401612:	8b 44 24 e0          	mov    -0x20(%rsp),%eax
  401616:	69 c0 eb aa 00 00    	imul   $0xaaeb,%eax,%eax
  40161c:	89 44 24 e0          	mov    %eax,-0x20(%rsp)
  401620:	8b 44 24 f4          	mov    -0xc(%rsp),%eax
  401624:	69 c0 58 13 00 00    	imul   $0x1358,%eax,%eax
  40162a:	89 44 24 f4          	mov    %eax,-0xc(%rsp)
  40162e:	8b 44 24 d0          	mov    -0x30(%rsp),%eax
  401632:	69 c0 3b 67 00 00    	imul   $0x673b,%eax,%eax
  401638:	89 44 24 d0          	mov    %eax,-0x30(%rsp)
  40163c:	8b 44 24 d4          	mov    -0x2c(%rsp),%eax
  401640:	69 c0 27 67 00 00    	imul   $0x6727,%eax,%eax
  401646:	89 44 24 d4          	mov    %eax,-0x2c(%rsp)
  40164a:	8b 44 24 f4          	mov    -0xc(%rsp),%eax
  40164e:	69 c0 5c 35 00 00    	imul   $0x355c,%eax,%eax
  401654:	89 44 24 f4          	mov    %eax,-0xc(%rsp)
  401658:	8b 44 24 d4          	mov    -0x2c(%rsp),%eax
  40165c:	69 c0 1b 58 00 00    	imul   $0x581b,%eax,%eax
  401662:	89 44 24 d4          	mov    %eax,-0x2c(%rsp)
  401666:	8b 44 24 e4          	mov    -0x1c(%rsp),%eax
  40166a:	69 c0 73 2b 00 00    	imul   $0x2b73,%eax,%eax
  401670:	89 44 24 e4          	mov    %eax,-0x1c(%rsp)
  401674:	8b 44 24 d0          	mov    -0x30(%rsp),%eax
  401678:	69 c0 7b f8 00 00    	imul   $0xf87b,%eax,%eax
  40167e:	89 44 24 d0          	mov    %eax,-0x30(%rsp)
  401682:	8b 44 24 e8          	mov    -0x18(%rsp),%eax
  401686:	69 c0 3d b7 00 00    	imul   $0xb73d,%eax,%eax
  40168c:	89 44 24 e8          	mov    %eax,-0x18(%rsp)
  401690:	8b 44 24 ec          	mov    -0x14(%rsp),%eax
  401694:	69 c0 b9 67 00 00    	imul   $0x67b9,%eax,%eax
  40169a:	89 44 24 ec          	mov    %eax,-0x14(%rsp)
  40169e:	8b 44 24 f4          	mov    -0xc(%rsp),%eax
  4016a2:	69 c0 da 3e 00 00    	imul   $0x3eda,%eax,%eax
  4016a8:	89 44 24 f4          	mov    %eax,-0xc(%rsp)
  4016ac:	8b 44 24 e4          	mov    -0x1c(%rsp),%eax
  4016b0:	69 c0 74 14 00 00    	imul   $0x1474,%eax,%eax
  4016b6:	89 44 24 e4          	mov    %eax,-0x1c(%rsp)
  4016ba:	8b 44 24 f0          	mov    -0x10(%rsp),%eax
  4016be:	69 c0 1e 05 00 00    	imul   $0x51e,%eax,%eax
  4016c4:	89 44 24 f0          	mov    %eax,-0x10(%rsp)
  4016c8:	8b 44 24 e0          	mov    -0x20(%rsp),%eax
  4016cc:	69 c0 7f 12 00 00    	imul   $0x127f,%eax,%eax
  4016d2:	89 44 24 e0          	mov    %eax,-0x20(%rsp)
  4016d6:	8b 44 24 d0          	mov    -0x30(%rsp),%eax
  4016da:	69 c0 c8 fe 00 00    	imul   $0xfec8,%eax,%eax
  4016e0:	89 44 24 d0          	mov    %eax,-0x30(%rsp)
  4016e4:	8b 44 24 ec          	mov    -0x14(%rsp),%eax
  4016e8:	69 c0 59 67 00 00    	imul   $0x6759,%eax,%eax
  4016ee:	89 44 24 ec          	mov    %eax,-0x14(%rsp)
  4016f2:	ba 00 00 00 00       	mov    $0x0,%edx
  4016f7:	b8 00 00 00 00       	mov    $0x0,%eax
  4016fc:	eb 0b                	jmp    401709 <scramble+0x486>
  4016fe:	89 d1                	mov    %edx,%ecx
  401700:	8b 4c 8c d0          	mov    -0x30(%rsp,%rcx,4),%ecx
  401704:	01 c8                	add    %ecx,%eax
  401706:	83 c2 01             	add    $0x1,%edx
  401709:	83 fa 09             	cmp    $0x9,%edx
  40170c:	76 f0                	jbe    4016fe <scramble+0x47b>
  40170e:	f3 c3                	repz retq 

0000000000401710 <getbuf>:
  401710:	48 83 ec 18          	sub    $0x18,%rsp
  401714:	48 89 e7             	mov    %rsp,%rdi
  401717:	e8 2e 02 00 00       	callq  40194a <Gets>
  40171c:	b8 01 00 00 00       	mov    $0x1,%eax
  401721:	48 83 c4 18          	add    $0x18,%rsp
  401725:	c3                   	retq   

0000000000401726 <touch1>:
  401726:	48 83 ec 08          	sub    $0x8,%rsp
  40172a:	c7 05 a8 2d 20 00 01 	movl   $0x1,0x202da8(%rip)        # 6044dc <vlevel>
  401731:	00 00 00 
  401734:	bf 9a 2e 40 00       	mov    $0x402e9a,%edi
  401739:	e8 f2 f4 ff ff       	callq  400c30 <puts@plt>
  40173e:	bf 01 00 00 00       	mov    $0x1,%edi
  401743:	e8 f1 03 00 00       	callq  401b39 <validate>
  401748:	bf 00 00 00 00       	mov    $0x0,%edi
  40174d:	e8 6e f6 ff ff       	callq  400dc0 <exit@plt>

0000000000401752 <touch2>:
  401752:	48 83 ec 08          	sub    $0x8,%rsp
  401756:	89 fe                	mov    %edi,%esi
  401758:	c7 05 7a 2d 20 00 02 	movl   $0x2,0x202d7a(%rip)        # 6044dc <vlevel>
  40175f:	00 00 00 
  401762:	3b 3d 7c 2d 20 00    	cmp    0x202d7c(%rip),%edi        # 6044e4 <cookie>
  401768:	75 1b                	jne    401785 <touch2+0x33>
  40176a:	bf c0 2e 40 00       	mov    $0x402ec0,%edi
  40176f:	b8 00 00 00 00       	mov    $0x0,%eax
  401774:	e8 e7 f4 ff ff       	callq  400c60 <printf@plt>
  401779:	bf 02 00 00 00       	mov    $0x2,%edi
  40177e:	e8 b6 03 00 00       	callq  401b39 <validate>
  401783:	eb 19                	jmp    40179e <touch2+0x4c>
  401785:	bf e8 2e 40 00       	mov    $0x402ee8,%edi
  40178a:	b8 00 00 00 00       	mov    $0x0,%eax
  40178f:	e8 cc f4 ff ff       	callq  400c60 <printf@plt>
  401794:	bf 02 00 00 00       	mov    $0x2,%edi
  401799:	e8 4d 04 00 00       	callq  401beb <fail>
  40179e:	bf 00 00 00 00       	mov    $0x0,%edi
  4017a3:	e8 18 f6 ff ff       	callq  400dc0 <exit@plt>

00000000004017a8 <hexmatch>:
  4017a8:	41 54                	push   %r12
  4017aa:	55                   	push   %rbp
  4017ab:	53                   	push   %rbx
  4017ac:	48 83 ec 70          	sub    $0x70,%rsp
  4017b0:	41 89 fc             	mov    %edi,%r12d
  4017b3:	48 89 f5             	mov    %rsi,%rbp
  4017b6:	e8 65 f5 ff ff       	callq  400d20 <random@plt>
  4017bb:	48 89 c1             	mov    %rax,%rcx
  4017be:	48 ba 0b d7 a3 70 3d 	movabs $0xa3d70a3d70a3d70b,%rdx
  4017c5:	0a d7 a3 
  4017c8:	48 f7 ea             	imul   %rdx
  4017cb:	48 8d 04 0a          	lea    (%rdx,%rcx,1),%rax
  4017cf:	48 c1 f8 06          	sar    $0x6,%rax
  4017d3:	48 89 ce             	mov    %rcx,%rsi
  4017d6:	48 c1 fe 3f          	sar    $0x3f,%rsi
  4017da:	48 29 f0             	sub    %rsi,%rax
  4017dd:	48 8d 04 80          	lea    (%rax,%rax,4),%rax
  4017e1:	48 8d 04 80          	lea    (%rax,%rax,4),%rax
  4017e5:	48 c1 e0 02          	shl    $0x2,%rax
  4017e9:	48 29 c1             	sub    %rax,%rcx
  4017ec:	48 8d 1c 0c          	lea    (%rsp,%rcx,1),%rbx
  4017f0:	44 89 e2             	mov    %r12d,%edx
  4017f3:	be b7 2e 40 00       	mov    $0x402eb7,%esi
  4017f8:	48 89 df             	mov    %rbx,%rdi
  4017fb:	b8 00 00 00 00       	mov    $0x0,%eax
  401800:	e8 ab f5 ff ff       	callq  400db0 <sprintf@plt>
  401805:	ba 09 00 00 00       	mov    $0x9,%edx
  40180a:	48 89 de             	mov    %rbx,%rsi
  40180d:	48 89 ef             	mov    %rbp,%rdi
  401810:	e8 fb f3 ff ff       	callq  400c10 <strncmp@plt>
  401815:	85 c0                	test   %eax,%eax
  401817:	0f 94 c0             	sete   %al
  40181a:	0f b6 c0             	movzbl %al,%eax
  40181d:	48 83 c4 70          	add    $0x70,%rsp
  401821:	5b                   	pop    %rbx
  401822:	5d                   	pop    %rbp
  401823:	41 5c                	pop    %r12
  401825:	c3                   	retq   

0000000000401826 <touch3>:
  401826:	53                   	push   %rbx
  401827:	48 89 fb             	mov    %rdi,%rbx
  40182a:	c7 05 a8 2c 20 00 03 	movl   $0x3,0x202ca8(%rip)        # 6044dc <vlevel>
  401831:	00 00 00 
  401834:	48 89 fe             	mov    %rdi,%rsi
  401837:	8b 3d a7 2c 20 00    	mov    0x202ca7(%rip),%edi        # 6044e4 <cookie>
  40183d:	e8 66 ff ff ff       	callq  4017a8 <hexmatch>
  401842:	85 c0                	test   %eax,%eax
  401844:	74 1e                	je     401864 <touch3+0x3e>
  401846:	48 89 de             	mov    %rbx,%rsi
  401849:	bf 10 2f 40 00       	mov    $0x402f10,%edi
  40184e:	b8 00 00 00 00       	mov    $0x0,%eax
  401853:	e8 08 f4 ff ff       	callq  400c60 <printf@plt>
  401858:	bf 03 00 00 00       	mov    $0x3,%edi
  40185d:	e8 d7 02 00 00       	callq  401b39 <validate>
  401862:	eb 1c                	jmp    401880 <touch3+0x5a>
  401864:	48 89 de             	mov    %rbx,%rsi
  401867:	bf 38 2f 40 00       	mov    $0x402f38,%edi
  40186c:	b8 00 00 00 00       	mov    $0x0,%eax
  401871:	e8 ea f3 ff ff       	callq  400c60 <printf@plt>
  401876:	bf 03 00 00 00       	mov    $0x3,%edi
  40187b:	e8 6b 03 00 00       	callq  401beb <fail>
  401880:	bf 00 00 00 00       	mov    $0x0,%edi
  401885:	e8 36 f5 ff ff       	callq  400dc0 <exit@plt>

000000000040188a <test>:
  40188a:	48 83 ec 08          	sub    $0x8,%rsp
  40188e:	b8 00 00 00 00       	mov    $0x0,%eax
  401893:	e8 78 fe ff ff       	callq  401710 <getbuf>
  401898:	89 c6                	mov    %eax,%esi
  40189a:	bf 60 2f 40 00       	mov    $0x402f60,%edi
  40189f:	b8 00 00 00 00       	mov    $0x0,%eax
  4018a4:	e8 b7 f3 ff ff       	callq  400c60 <printf@plt>
  4018a9:	48 83 c4 08          	add    $0x8,%rsp
  4018ad:	c3                   	retq   
  4018ae:	66 90                	xchg   %ax,%ax

00000000004018b0 <save_char>:
  4018b0:	8b 05 4e 38 20 00    	mov    0x20384e(%rip),%eax        # 605104 <gets_cnt>
  4018b6:	3d ff 03 00 00       	cmp    $0x3ff,%eax
  4018bb:	7f 49                	jg     401906 <save_char+0x56>
  4018bd:	8d 14 40             	lea    (%rax,%rax,2),%edx
  4018c0:	89 f9                	mov    %edi,%ecx
  4018c2:	c0 e9 04             	shr    $0x4,%cl
  4018c5:	83 e1 0f             	and    $0xf,%ecx
  4018c8:	0f b6 b1 80 32 40 00 	movzbl 0x403280(%rcx),%esi
  4018cf:	48 63 ca             	movslq %edx,%rcx
  4018d2:	40 88 b1 00 45 60 00 	mov    %sil,0x604500(%rcx)
  4018d9:	8d 4a 01             	lea    0x1(%rdx),%ecx
  4018dc:	83 e7 0f             	and    $0xf,%edi
  4018df:	0f b6 b7 80 32 40 00 	movzbl 0x403280(%rdi),%esi
  4018e6:	48 63 c9             	movslq %ecx,%rcx
  4018e9:	40 88 b1 00 45 60 00 	mov    %sil,0x604500(%rcx)
  4018f0:	83 c2 02             	add    $0x2,%edx
  4018f3:	48 63 d2             	movslq %edx,%rdx
  4018f6:	c6 82 00 45 60 00 20 	movb   $0x20,0x604500(%rdx)
  4018fd:	83 c0 01             	add    $0x1,%eax
  401900:	89 05 fe 37 20 00    	mov    %eax,0x2037fe(%rip)        # 605104 <gets_cnt>
  401906:	f3 c3                	repz retq 

0000000000401908 <save_term>:
  401908:	8b 05 f6 37 20 00    	mov    0x2037f6(%rip),%eax        # 605104 <gets_cnt>
  40190e:	8d 04 40             	lea    (%rax,%rax,2),%eax
  401911:	48 98                	cltq   
  401913:	c6 80 00 45 60 00 00 	movb   $0x0,0x604500(%rax)
  40191a:	c3                   	retq   

000000000040191b <check_fail>:
  40191b:	48 83 ec 08          	sub    $0x8,%rsp
  40191f:	0f be 35 e2 37 20 00 	movsbl 0x2037e2(%rip),%esi        # 605108 <target_prefix>
  401926:	b9 00 45 60 00       	mov    $0x604500,%ecx
  40192b:	8b 15 a7 2b 20 00    	mov    0x202ba7(%rip),%edx        # 6044d8 <check_level>
  401931:	bf 83 2f 40 00       	mov    $0x402f83,%edi
  401936:	b8 00 00 00 00       	mov    $0x0,%eax
  40193b:	e8 20 f3 ff ff       	callq  400c60 <printf@plt>
  401940:	bf 01 00 00 00       	mov    $0x1,%edi
  401945:	e8 76 f4 ff ff       	callq  400dc0 <exit@plt>

000000000040194a <Gets>:
  40194a:	41 54                	push   %r12
  40194c:	55                   	push   %rbp
  40194d:	53                   	push   %rbx
  40194e:	49 89 fc             	mov    %rdi,%r12
  401951:	c7 05 a9 37 20 00 00 	movl   $0x0,0x2037a9(%rip)        # 605104 <gets_cnt>
  401958:	00 00 00 
  40195b:	48 89 fb             	mov    %rdi,%rbx
  40195e:	eb 11                	jmp    401971 <Gets+0x27>
  401960:	48 8d 6b 01          	lea    0x1(%rbx),%rbp
  401964:	88 03                	mov    %al,(%rbx)
  401966:	0f b6 f8             	movzbl %al,%edi
  401969:	e8 42 ff ff ff       	callq  4018b0 <save_char>
  40196e:	48 89 eb             	mov    %rbp,%rbx
  401971:	48 8b 3d 58 2b 20 00 	mov    0x202b58(%rip),%rdi        # 6044d0 <infile>
  401978:	e8 b3 f3 ff ff       	callq  400d30 <_IO_getc@plt>
  40197d:	83 f8 ff             	cmp    $0xffffffff,%eax
  401980:	74 05                	je     401987 <Gets+0x3d>
  401982:	83 f8 0a             	cmp    $0xa,%eax
  401985:	75 d9                	jne    401960 <Gets+0x16>
  401987:	c6 03 00             	movb   $0x0,(%rbx)
  40198a:	b8 00 00 00 00       	mov    $0x0,%eax
  40198f:	e8 74 ff ff ff       	callq  401908 <save_term>
  401994:	4c 89 e0             	mov    %r12,%rax
  401997:	5b                   	pop    %rbx
  401998:	5d                   	pop    %rbp
  401999:	41 5c                	pop    %r12
  40199b:	c3                   	retq   

000000000040199c <notify_server>:
  40199c:	83 3d 45 2b 20 00 00 	cmpl   $0x0,0x202b45(%rip)        # 6044e8 <is_checker>
  4019a3:	0f 85 8e 01 00 00    	jne    401b37 <notify_server+0x19b>
  4019a9:	53                   	push   %rbx
  4019aa:	48 81 ec 10 40 00 00 	sub    $0x4010,%rsp
  4019b1:	89 fb                	mov    %edi,%ebx
  4019b3:	8b 05 4b 37 20 00    	mov    0x20374b(%rip),%eax        # 605104 <gets_cnt>
  4019b9:	83 c0 64             	add    $0x64,%eax
  4019bc:	3d 00 20 00 00       	cmp    $0x2000,%eax
  4019c1:	7e 19                	jle    4019dc <notify_server+0x40>
  4019c3:	bf b8 30 40 00       	mov    $0x4030b8,%edi
  4019c8:	b8 00 00 00 00       	mov    $0x0,%eax
  4019cd:	e8 8e f2 ff ff       	callq  400c60 <printf@plt>
  4019d2:	bf 01 00 00 00       	mov    $0x1,%edi
  4019d7:	e8 e4 f3 ff ff       	callq  400dc0 <exit@plt>
  4019dc:	44 0f be 0d 24 37 20 	movsbl 0x203724(%rip),%r9d        # 605108 <target_prefix>
  4019e3:	00 
  4019e4:	83 3d 9d 2a 20 00 00 	cmpl   $0x0,0x202a9d(%rip)        # 604488 <notify>
  4019eb:	74 09                	je     4019f6 <notify_server+0x5a>
  4019ed:	44 8b 05 ec 2a 20 00 	mov    0x202aec(%rip),%r8d        # 6044e0 <authkey>
  4019f4:	eb 06                	jmp    4019fc <notify_server+0x60>
  4019f6:	41 b8 ff ff ff ff    	mov    $0xffffffff,%r8d
  4019fc:	85 db                	test   %ebx,%ebx
  4019fe:	74 07                	je     401a07 <notify_server+0x6b>
  401a00:	b9 99 2f 40 00       	mov    $0x402f99,%ecx
  401a05:	eb 05                	jmp    401a0c <notify_server+0x70>
  401a07:	b9 9e 2f 40 00       	mov    $0x402f9e,%ecx
  401a0c:	48 c7 44 24 08 00 45 	movq   $0x604500,0x8(%rsp)
  401a13:	60 00 
  401a15:	89 34 24             	mov    %esi,(%rsp)
  401a18:	8b 15 2a 27 20 00    	mov    0x20272a(%rip),%edx        # 604148 <target_id>
  401a1e:	be a3 2f 40 00       	mov    $0x402fa3,%esi
  401a23:	48 8d bc 24 10 20 00 	lea    0x2010(%rsp),%rdi
  401a2a:	00 
  401a2b:	b8 00 00 00 00       	mov    $0x0,%eax
  401a30:	e8 7b f3 ff ff       	callq  400db0 <sprintf@plt>
  401a35:	83 3d 4c 2a 20 00 00 	cmpl   $0x0,0x202a4c(%rip)        # 604488 <notify>
  401a3c:	74 78                	je     401ab6 <notify_server+0x11a>
  401a3e:	85 db                	test   %ebx,%ebx
  401a40:	74 68                	je     401aaa <notify_server+0x10e>
  401a42:	4c 8d 4c 24 10       	lea    0x10(%rsp),%r9
  401a47:	41 b8 00 00 00 00    	mov    $0x0,%r8d
  401a4d:	48 8d 8c 24 10 20 00 	lea    0x2010(%rsp),%rcx
  401a54:	00 
  401a55:	48 8b 15 f4 26 20 00 	mov    0x2026f4(%rip),%rdx        # 604150 <lab>
  401a5c:	48 8b 35 f5 26 20 00 	mov    0x2026f5(%rip),%rsi        # 604158 <course>
  401a63:	48 8b 3d d6 26 20 00 	mov    0x2026d6(%rip),%rdi        # 604140 <user_id>
  401a6a:	e8 94 0f 00 00       	callq  402a03 <driver_post>
  401a6f:	85 c0                	test   %eax,%eax
  401a71:	79 1e                	jns    401a91 <notify_server+0xf5>
  401a73:	48 8d 74 24 10       	lea    0x10(%rsp),%rsi
  401a78:	bf bf 2f 40 00       	mov    $0x402fbf,%edi
  401a7d:	b8 00 00 00 00       	mov    $0x0,%eax
  401a82:	e8 d9 f1 ff ff       	callq  400c60 <printf@plt>
  401a87:	bf 01 00 00 00       	mov    $0x1,%edi
  401a8c:	e8 2f f3 ff ff       	callq  400dc0 <exit@plt>
  401a91:	bf e8 30 40 00       	mov    $0x4030e8,%edi
  401a96:	e8 95 f1 ff ff       	callq  400c30 <puts@plt>
  401a9b:	bf cb 2f 40 00       	mov    $0x402fcb,%edi
  401aa0:	e8 8b f1 ff ff       	callq  400c30 <puts@plt>
  401aa5:	e9 85 00 00 00       	jmpq   401b2f <notify_server+0x193>
  401aaa:	bf d5 2f 40 00       	mov    $0x402fd5,%edi
  401aaf:	e8 7c f1 ff ff       	callq  400c30 <puts@plt>
  401ab4:	eb 79                	jmp    401b2f <notify_server+0x193>
  401ab6:	85 db                	test   %ebx,%ebx
  401ab8:	74 08                	je     401ac2 <notify_server+0x126>
  401aba:	be 99 2f 40 00       	mov    $0x402f99,%esi
  401abf:	90                   	nop
  401ac0:	eb 05                	jmp    401ac7 <notify_server+0x12b>
  401ac2:	be 9e 2f 40 00       	mov    $0x402f9e,%esi
  401ac7:	bf 20 31 40 00       	mov    $0x403120,%edi
  401acc:	b8 00 00 00 00       	mov    $0x0,%eax
  401ad1:	e8 8a f1 ff ff       	callq  400c60 <printf@plt>
  401ad6:	48 8b 35 63 26 20 00 	mov    0x202663(%rip),%rsi        # 604140 <user_id>
  401add:	bf dc 2f 40 00       	mov    $0x402fdc,%edi
  401ae2:	b8 00 00 00 00       	mov    $0x0,%eax
  401ae7:	e8 74 f1 ff ff       	callq  400c60 <printf@plt>
  401aec:	48 8b 35 65 26 20 00 	mov    0x202665(%rip),%rsi        # 604158 <course>
  401af3:	bf e9 2f 40 00       	mov    $0x402fe9,%edi
  401af8:	b8 00 00 00 00       	mov    $0x0,%eax
  401afd:	e8 5e f1 ff ff       	callq  400c60 <printf@plt>
  401b02:	48 8b 35 47 26 20 00 	mov    0x202647(%rip),%rsi        # 604150 <lab>
  401b09:	bf f5 2f 40 00       	mov    $0x402ff5,%edi
  401b0e:	b8 00 00 00 00       	mov    $0x0,%eax
  401b13:	e8 48 f1 ff ff       	callq  400c60 <printf@plt>
  401b18:	48 8d b4 24 10 20 00 	lea    0x2010(%rsp),%rsi
  401b1f:	00 
  401b20:	bf fe 2f 40 00       	mov    $0x402ffe,%edi
  401b25:	b8 00 00 00 00       	mov    $0x0,%eax
  401b2a:	e8 31 f1 ff ff       	callq  400c60 <printf@plt>
  401b2f:	48 81 c4 10 40 00 00 	add    $0x4010,%rsp
  401b36:	5b                   	pop    %rbx
  401b37:	f3 c3                	repz retq 

0000000000401b39 <validate>:
  401b39:	53                   	push   %rbx
  401b3a:	89 fb                	mov    %edi,%ebx
  401b3c:	83 3d a5 29 20 00 00 	cmpl   $0x0,0x2029a5(%rip)        # 6044e8 <is_checker>
  401b43:	74 60                	je     401ba5 <validate+0x6c>
  401b45:	39 3d 91 29 20 00    	cmp    %edi,0x202991(%rip)        # 6044dc <vlevel>
  401b4b:	74 14                	je     401b61 <validate+0x28>
  401b4d:	bf 0a 30 40 00       	mov    $0x40300a,%edi
  401b52:	e8 d9 f0 ff ff       	callq  400c30 <puts@plt>
  401b57:	b8 00 00 00 00       	mov    $0x0,%eax
  401b5c:	e8 ba fd ff ff       	callq  40191b <check_fail>
  401b61:	8b 35 71 29 20 00    	mov    0x202971(%rip),%esi        # 6044d8 <check_level>
  401b67:	39 fe                	cmp    %edi,%esi
  401b69:	74 1b                	je     401b86 <validate+0x4d>
  401b6b:	89 fa                	mov    %edi,%edx
  401b6d:	bf 48 31 40 00       	mov    $0x403148,%edi
  401b72:	b8 00 00 00 00       	mov    $0x0,%eax
  401b77:	e8 e4 f0 ff ff       	callq  400c60 <printf@plt>
  401b7c:	b8 00 00 00 00       	mov    $0x0,%eax
  401b81:	e8 95 fd ff ff       	callq  40191b <check_fail>
  401b86:	0f be 35 7b 35 20 00 	movsbl 0x20357b(%rip),%esi        # 605108 <target_prefix>
  401b8d:	b9 00 45 60 00       	mov    $0x604500,%ecx
  401b92:	89 fa                	mov    %edi,%edx
  401b94:	bf 28 30 40 00       	mov    $0x403028,%edi
  401b99:	b8 00 00 00 00       	mov    $0x0,%eax
  401b9e:	e8 bd f0 ff ff       	callq  400c60 <printf@plt>
  401ba3:	eb 44                	jmp    401be9 <validate+0xb0>
  401ba5:	39 3d 31 29 20 00    	cmp    %edi,0x202931(%rip)        # 6044dc <vlevel>
  401bab:	74 18                	je     401bc5 <validate+0x8c>
  401bad:	bf 0a 30 40 00       	mov    $0x40300a,%edi
  401bb2:	e8 79 f0 ff ff       	callq  400c30 <puts@plt>
  401bb7:	89 de                	mov    %ebx,%esi
  401bb9:	bf 00 00 00 00       	mov    $0x0,%edi
  401bbe:	e8 d9 fd ff ff       	callq  40199c <notify_server>
  401bc3:	eb 24                	jmp    401be9 <validate+0xb0>
  401bc5:	0f be 15 3c 35 20 00 	movsbl 0x20353c(%rip),%edx        # 605108 <target_prefix>
  401bcc:	89 fe                	mov    %edi,%esi
  401bce:	bf 70 31 40 00       	mov    $0x403170,%edi
  401bd3:	b8 00 00 00 00       	mov    $0x0,%eax
  401bd8:	e8 83 f0 ff ff       	callq  400c60 <printf@plt>
  401bdd:	89 de                	mov    %ebx,%esi
  401bdf:	bf 01 00 00 00       	mov    $0x1,%edi
  401be4:	e8 b3 fd ff ff       	callq  40199c <notify_server>
  401be9:	5b                   	pop    %rbx
  401bea:	c3                   	retq   

0000000000401beb <fail>:
  401beb:	48 83 ec 08          	sub    $0x8,%rsp
  401bef:	83 3d f2 28 20 00 00 	cmpl   $0x0,0x2028f2(%rip)        # 6044e8 <is_checker>
  401bf6:	74 0a                	je     401c02 <fail+0x17>
  401bf8:	b8 00 00 00 00       	mov    $0x0,%eax
  401bfd:	e8 19 fd ff ff       	callq  40191b <check_fail>
  401c02:	89 fe                	mov    %edi,%esi
  401c04:	bf 00 00 00 00       	mov    $0x0,%edi
  401c09:	e8 8e fd ff ff       	callq  40199c <notify_server>
  401c0e:	48 83 c4 08          	add    $0x8,%rsp
  401c12:	c3                   	retq   

0000000000401c13 <bushandler>:
  401c13:	48 83 ec 08          	sub    $0x8,%rsp
  401c17:	83 3d ca 28 20 00 00 	cmpl   $0x0,0x2028ca(%rip)        # 6044e8 <is_checker>
  401c1e:	74 14                	je     401c34 <bushandler+0x21>
  401c20:	bf 3d 30 40 00       	mov    $0x40303d,%edi
  401c25:	e8 06 f0 ff ff       	callq  400c30 <puts@plt>
  401c2a:	b8 00 00 00 00       	mov    $0x0,%eax
  401c2f:	e8 e7 fc ff ff       	callq  40191b <check_fail>
  401c34:	bf a8 31 40 00       	mov    $0x4031a8,%edi
  401c39:	e8 f2 ef ff ff       	callq  400c30 <puts@plt>
  401c3e:	bf 47 30 40 00       	mov    $0x403047,%edi
  401c43:	e8 e8 ef ff ff       	callq  400c30 <puts@plt>
  401c48:	be 00 00 00 00       	mov    $0x0,%esi
  401c4d:	bf 00 00 00 00       	mov    $0x0,%edi
  401c52:	e8 45 fd ff ff       	callq  40199c <notify_server>
  401c57:	bf 01 00 00 00       	mov    $0x1,%edi
  401c5c:	e8 5f f1 ff ff       	callq  400dc0 <exit@plt>

0000000000401c61 <seghandler>:
  401c61:	48 83 ec 08          	sub    $0x8,%rsp
  401c65:	83 3d 7c 28 20 00 00 	cmpl   $0x0,0x20287c(%rip)        # 6044e8 <is_checker>
  401c6c:	74 14                	je     401c82 <seghandler+0x21>
  401c6e:	bf 5d 30 40 00       	mov    $0x40305d,%edi
  401c73:	e8 b8 ef ff ff       	callq  400c30 <puts@plt>
  401c78:	b8 00 00 00 00       	mov    $0x0,%eax
  401c7d:	e8 99 fc ff ff       	callq  40191b <check_fail>
  401c82:	bf c8 31 40 00       	mov    $0x4031c8,%edi
  401c87:	e8 a4 ef ff ff       	callq  400c30 <puts@plt>
  401c8c:	bf 47 30 40 00       	mov    $0x403047,%edi
  401c91:	e8 9a ef ff ff       	callq  400c30 <puts@plt>
  401c96:	be 00 00 00 00       	mov    $0x0,%esi
  401c9b:	bf 00 00 00 00       	mov    $0x0,%edi
  401ca0:	e8 f7 fc ff ff       	callq  40199c <notify_server>
  401ca5:	bf 01 00 00 00       	mov    $0x1,%edi
  401caa:	e8 11 f1 ff ff       	callq  400dc0 <exit@plt>

0000000000401caf <illegalhandler>:
  401caf:	48 83 ec 08          	sub    $0x8,%rsp
  401cb3:	83 3d 2e 28 20 00 00 	cmpl   $0x0,0x20282e(%rip)        # 6044e8 <is_checker>
  401cba:	74 14                	je     401cd0 <illegalhandler+0x21>
  401cbc:	bf 70 30 40 00       	mov    $0x403070,%edi
  401cc1:	e8 6a ef ff ff       	callq  400c30 <puts@plt>
  401cc6:	b8 00 00 00 00       	mov    $0x0,%eax
  401ccb:	e8 4b fc ff ff       	callq  40191b <check_fail>
  401cd0:	bf f0 31 40 00       	mov    $0x4031f0,%edi
  401cd5:	e8 56 ef ff ff       	callq  400c30 <puts@plt>
  401cda:	bf 47 30 40 00       	mov    $0x403047,%edi
  401cdf:	e8 4c ef ff ff       	callq  400c30 <puts@plt>
  401ce4:	be 00 00 00 00       	mov    $0x0,%esi
  401ce9:	bf 00 00 00 00       	mov    $0x0,%edi
  401cee:	e8 a9 fc ff ff       	callq  40199c <notify_server>
  401cf3:	bf 01 00 00 00       	mov    $0x1,%edi
  401cf8:	e8 c3 f0 ff ff       	callq  400dc0 <exit@plt>

0000000000401cfd <sigalrmhandler>:
  401cfd:	48 83 ec 08          	sub    $0x8,%rsp
  401d01:	83 3d e0 27 20 00 00 	cmpl   $0x0,0x2027e0(%rip)        # 6044e8 <is_checker>
  401d08:	74 14                	je     401d1e <sigalrmhandler+0x21>
  401d0a:	bf 84 30 40 00       	mov    $0x403084,%edi
  401d0f:	e8 1c ef ff ff       	callq  400c30 <puts@plt>
  401d14:	b8 00 00 00 00       	mov    $0x0,%eax
  401d19:	e8 fd fb ff ff       	callq  40191b <check_fail>
  401d1e:	be 05 00 00 00       	mov    $0x5,%esi
  401d23:	bf 20 32 40 00       	mov    $0x403220,%edi
  401d28:	b8 00 00 00 00       	mov    $0x0,%eax
  401d2d:	e8 2e ef ff ff       	callq  400c60 <printf@plt>
  401d32:	be 00 00 00 00       	mov    $0x0,%esi
  401d37:	bf 00 00 00 00       	mov    $0x0,%edi
  401d3c:	e8 5b fc ff ff       	callq  40199c <notify_server>
  401d41:	bf 01 00 00 00       	mov    $0x1,%edi
  401d46:	e8 75 f0 ff ff       	callq  400dc0 <exit@plt>

0000000000401d4b <launch>:
  401d4b:	55                   	push   %rbp
  401d4c:	48 89 e5             	mov    %rsp,%rbp
  401d4f:	48 89 fa             	mov    %rdi,%rdx
  401d52:	48 8d 47 1e          	lea    0x1e(%rdi),%rax
  401d56:	48 83 e0 f0          	and    $0xfffffffffffffff0,%rax
  401d5a:	48 29 c4             	sub    %rax,%rsp
  401d5d:	48 8d 7c 24 0f       	lea    0xf(%rsp),%rdi
  401d62:	48 83 e7 f0          	and    $0xfffffffffffffff0,%rdi
  401d66:	be f4 00 00 00       	mov    $0xf4,%esi
  401d6b:	e8 00 ef ff ff       	callq  400c70 <memset@plt>
  401d70:	48 8b 05 29 27 20 00 	mov    0x202729(%rip),%rax        # 6044a0 <stdin@@GLIBC_2.2.5>
  401d77:	48 39 05 52 27 20 00 	cmp    %rax,0x202752(%rip)        # 6044d0 <infile>
  401d7e:	75 0f                	jne    401d8f <launch+0x44>
  401d80:	bf 8c 30 40 00       	mov    $0x40308c,%edi
  401d85:	b8 00 00 00 00       	mov    $0x0,%eax
  401d8a:	e8 d1 ee ff ff       	callq  400c60 <printf@plt>
  401d8f:	c7 05 43 27 20 00 00 	movl   $0x0,0x202743(%rip)        # 6044dc <vlevel>
  401d96:	00 00 00 
  401d99:	b8 00 00 00 00       	mov    $0x0,%eax
  401d9e:	e8 e7 fa ff ff       	callq  40188a <test>
  401da3:	83 3d 3e 27 20 00 00 	cmpl   $0x0,0x20273e(%rip)        # 6044e8 <is_checker>
  401daa:	74 14                	je     401dc0 <launch+0x75>
  401dac:	bf 99 30 40 00       	mov    $0x403099,%edi
  401db1:	e8 7a ee ff ff       	callq  400c30 <puts@plt>
  401db6:	b8 00 00 00 00       	mov    $0x0,%eax
  401dbb:	e8 5b fb ff ff       	callq  40191b <check_fail>
  401dc0:	bf a4 30 40 00       	mov    $0x4030a4,%edi
  401dc5:	e8 66 ee ff ff       	callq  400c30 <puts@plt>
  401dca:	c9                   	leaveq 
  401dcb:	c3                   	retq   

0000000000401dcc <stable_launch>:
  401dcc:	53                   	push   %rbx
  401dcd:	48 89 3d f4 26 20 00 	mov    %rdi,0x2026f4(%rip)        # 6044c8 <global_offset>
  401dd4:	41 b9 00 00 00 00    	mov    $0x0,%r9d
  401dda:	41 b8 00 00 00 00    	mov    $0x0,%r8d
  401de0:	b9 32 01 00 00       	mov    $0x132,%ecx
  401de5:	ba 07 00 00 00       	mov    $0x7,%edx
  401dea:	be 00 00 10 00       	mov    $0x100000,%esi
  401def:	bf 00 60 58 55       	mov    $0x55586000,%edi
  401df4:	e8 57 ee ff ff       	callq  400c50 <mmap@plt>
  401df9:	48 89 c3             	mov    %rax,%rbx
  401dfc:	48 3d 00 60 58 55    	cmp    $0x55586000,%rax
  401e02:	74 32                	je     401e36 <stable_launch+0x6a>
  401e04:	be 00 00 10 00       	mov    $0x100000,%esi
  401e09:	48 89 c7             	mov    %rax,%rdi
  401e0c:	e8 3f ef ff ff       	callq  400d50 <munmap@plt>
  401e11:	ba 00 60 58 55       	mov    $0x55586000,%edx
  401e16:	be 58 32 40 00       	mov    $0x403258,%esi
  401e1b:	48 8b 3d 8e 26 20 00 	mov    0x20268e(%rip),%rdi        # 6044b0 <stderr@@GLIBC_2.2.5>
  401e22:	b8 00 00 00 00       	mov    $0x0,%eax
  401e27:	e8 b4 ee ff ff       	callq  400ce0 <fprintf@plt>
  401e2c:	bf 01 00 00 00       	mov    $0x1,%edi
  401e31:	e8 8a ef ff ff       	callq  400dc0 <exit@plt>
  401e36:	48 8d 90 f8 ff 0f 00 	lea    0xffff8(%rax),%rdx
  401e3d:	48 89 15 cc 32 20 00 	mov    %rdx,0x2032cc(%rip)        # 605110 <stack_top>
  401e44:	48 89 e0             	mov    %rsp,%rax
  401e47:	48 89 d4             	mov    %rdx,%rsp
  401e4a:	48 89 c2             	mov    %rax,%rdx
  401e4d:	48 89 15 6c 26 20 00 	mov    %rdx,0x20266c(%rip)        # 6044c0 <global_save_stack>
  401e54:	48 8b 3d 6d 26 20 00 	mov    0x20266d(%rip),%rdi        # 6044c8 <global_offset>
  401e5b:	e8 eb fe ff ff       	callq  401d4b <launch>
  401e60:	48 8b 05 59 26 20 00 	mov    0x202659(%rip),%rax        # 6044c0 <global_save_stack>
  401e67:	48 89 c4             	mov    %rax,%rsp
  401e6a:	be 00 00 10 00       	mov    $0x100000,%esi
  401e6f:	48 89 df             	mov    %rbx,%rdi
  401e72:	e8 d9 ee ff ff       	callq  400d50 <munmap@plt>
  401e77:	5b                   	pop    %rbx
  401e78:	c3                   	retq   
  401e79:	0f 1f 80 00 00 00 00 	nopl   0x0(%rax)

0000000000401e80 <rio_readinitb>:
  401e80:	89 37                	mov    %esi,(%rdi)
  401e82:	c7 47 04 00 00 00 00 	movl   $0x0,0x4(%rdi)
  401e89:	48 8d 47 10          	lea    0x10(%rdi),%rax
  401e8d:	48 89 47 08          	mov    %rax,0x8(%rdi)
  401e91:	c3                   	retq   

0000000000401e92 <sigalrm_handler>:
  401e92:	48 83 ec 08          	sub    $0x8,%rsp
  401e96:	ba 00 00 00 00       	mov    $0x0,%edx
  401e9b:	be 90 32 40 00       	mov    $0x403290,%esi
  401ea0:	48 8b 3d 09 26 20 00 	mov    0x202609(%rip),%rdi        # 6044b0 <stderr@@GLIBC_2.2.5>
  401ea7:	b8 00 00 00 00       	mov    $0x0,%eax
  401eac:	e8 2f ee ff ff       	callq  400ce0 <fprintf@plt>
  401eb1:	bf 01 00 00 00       	mov    $0x1,%edi
  401eb6:	e8 05 ef ff ff       	callq  400dc0 <exit@plt>

0000000000401ebb <urlencode>:
  401ebb:	41 54                	push   %r12
  401ebd:	55                   	push   %rbp
  401ebe:	53                   	push   %rbx
  401ebf:	48 83 ec 10          	sub    $0x10,%rsp
  401ec3:	48 89 fb             	mov    %rdi,%rbx
  401ec6:	48 89 f5             	mov    %rsi,%rbp
  401ec9:	b8 00 00 00 00       	mov    $0x0,%eax
  401ece:	48 c7 c1 ff ff ff ff 	mov    $0xffffffffffffffff,%rcx
  401ed5:	f2 ae                	repnz scas %es:(%rdi),%al
  401ed7:	48 f7 d1             	not    %rcx
  401eda:	8d 41 ff             	lea    -0x1(%rcx),%eax
  401edd:	e9 93 00 00 00       	jmpq   401f75 <urlencode+0xba>
  401ee2:	0f b6 13             	movzbl (%rbx),%edx
  401ee5:	80 fa 2a             	cmp    $0x2a,%dl
  401ee8:	0f 94 c1             	sete   %cl
  401eeb:	80 fa 2d             	cmp    $0x2d,%dl
  401eee:	0f 94 c0             	sete   %al
  401ef1:	08 c1                	or     %al,%cl
  401ef3:	75 1f                	jne    401f14 <urlencode+0x59>
  401ef5:	80 fa 2e             	cmp    $0x2e,%dl
  401ef8:	74 1a                	je     401f14 <urlencode+0x59>
  401efa:	80 fa 5f             	cmp    $0x5f,%dl
  401efd:	74 15                	je     401f14 <urlencode+0x59>
  401eff:	8d 42 d0             	lea    -0x30(%rdx),%eax
  401f02:	3c 09                	cmp    $0x9,%al
  401f04:	76 0e                	jbe    401f14 <urlencode+0x59>
  401f06:	8d 42 bf             	lea    -0x41(%rdx),%eax
  401f09:	3c 19                	cmp    $0x19,%al
  401f0b:	76 07                	jbe    401f14 <urlencode+0x59>
  401f0d:	8d 42 9f             	lea    -0x61(%rdx),%eax
  401f10:	3c 19                	cmp    $0x19,%al
  401f12:	77 09                	ja     401f1d <urlencode+0x62>
  401f14:	88 55 00             	mov    %dl,0x0(%rbp)
  401f17:	48 8d 6d 01          	lea    0x1(%rbp),%rbp
  401f1b:	eb 51                	jmp    401f6e <urlencode+0xb3>
  401f1d:	80 fa 20             	cmp    $0x20,%dl
  401f20:	75 0a                	jne    401f2c <urlencode+0x71>
  401f22:	c6 45 00 2b          	movb   $0x2b,0x0(%rbp)
  401f26:	48 8d 6d 01          	lea    0x1(%rbp),%rbp
  401f2a:	eb 42                	jmp    401f6e <urlencode+0xb3>
  401f2c:	8d 42 e0             	lea    -0x20(%rdx),%eax
  401f2f:	3c 5f                	cmp    $0x5f,%al
  401f31:	0f 96 c1             	setbe  %cl
  401f34:	80 fa 09             	cmp    $0x9,%dl
  401f37:	0f 94 c0             	sete   %al
  401f3a:	08 c1                	or     %al,%cl
  401f3c:	74 45                	je     401f83 <urlencode+0xc8>
  401f3e:	0f b6 d2             	movzbl %dl,%edx
  401f41:	be 28 33 40 00       	mov    $0x403328,%esi
  401f46:	48 89 e7             	mov    %rsp,%rdi
  401f49:	b8 00 00 00 00       	mov    $0x0,%eax
  401f4e:	e8 5d ee ff ff       	callq  400db0 <sprintf@plt>
  401f53:	0f b6 04 24          	movzbl (%rsp),%eax
  401f57:	88 45 00             	mov    %al,0x0(%rbp)
  401f5a:	0f b6 44 24 01       	movzbl 0x1(%rsp),%eax
  401f5f:	88 45 01             	mov    %al,0x1(%rbp)
  401f62:	0f b6 44 24 02       	movzbl 0x2(%rsp),%eax
  401f67:	88 45 02             	mov    %al,0x2(%rbp)
  401f6a:	48 8d 6d 03          	lea    0x3(%rbp),%rbp
  401f6e:	48 83 c3 01          	add    $0x1,%rbx
  401f72:	44 89 e0             	mov    %r12d,%eax
  401f75:	44 8d 60 ff          	lea    -0x1(%rax),%r12d
  401f79:	85 c0                	test   %eax,%eax
  401f7b:	0f 85 61 ff ff ff    	jne    401ee2 <urlencode+0x27>
  401f81:	eb 05                	jmp    401f88 <urlencode+0xcd>
  401f83:	b8 ff ff ff ff       	mov    $0xffffffff,%eax
  401f88:	48 83 c4 10          	add    $0x10,%rsp
  401f8c:	5b                   	pop    %rbx
  401f8d:	5d                   	pop    %rbp
  401f8e:	41 5c                	pop    %r12
  401f90:	c3                   	retq   

0000000000401f91 <rio_writen>:
  401f91:	41 55                	push   %r13
  401f93:	41 54                	push   %r12
  401f95:	55                   	push   %rbp
  401f96:	53                   	push   %rbx
  401f97:	48 83 ec 08          	sub    $0x8,%rsp
  401f9b:	41 89 fc             	mov    %edi,%r12d
  401f9e:	48 89 f5             	mov    %rsi,%rbp
  401fa1:	49 89 d5             	mov    %rdx,%r13
  401fa4:	48 89 d3             	mov    %rdx,%rbx
  401fa7:	eb 28                	jmp    401fd1 <rio_writen+0x40>
  401fa9:	48 89 da             	mov    %rbx,%rdx
  401fac:	48 89 ee             	mov    %rbp,%rsi
  401faf:	44 89 e7             	mov    %r12d,%edi
  401fb2:	e8 89 ec ff ff       	callq  400c40 <write@plt>
  401fb7:	48 85 c0             	test   %rax,%rax
  401fba:	7f 0f                	jg     401fcb <rio_writen+0x3a>
  401fbc:	e8 2f ec ff ff       	callq  400bf0 <__errno_location@plt>
  401fc1:	83 38 04             	cmpl   $0x4,(%rax)
  401fc4:	75 15                	jne    401fdb <rio_writen+0x4a>
  401fc6:	b8 00 00 00 00       	mov    $0x0,%eax
  401fcb:	48 29 c3             	sub    %rax,%rbx
  401fce:	48 01 c5             	add    %rax,%rbp
  401fd1:	48 85 db             	test   %rbx,%rbx
  401fd4:	75 d3                	jne    401fa9 <rio_writen+0x18>
  401fd6:	4c 89 e8             	mov    %r13,%rax
  401fd9:	eb 07                	jmp    401fe2 <rio_writen+0x51>
  401fdb:	48 c7 c0 ff ff ff ff 	mov    $0xffffffffffffffff,%rax
  401fe2:	48 83 c4 08          	add    $0x8,%rsp
  401fe6:	5b                   	pop    %rbx
  401fe7:	5d                   	pop    %rbp
  401fe8:	41 5c                	pop    %r12
  401fea:	41 5d                	pop    %r13
  401fec:	c3                   	retq   

0000000000401fed <rio_read>:
  401fed:	41 56                	push   %r14
  401fef:	41 55                	push   %r13
  401ff1:	41 54                	push   %r12
  401ff3:	55                   	push   %rbp
  401ff4:	53                   	push   %rbx
  401ff5:	48 89 fb             	mov    %rdi,%rbx
  401ff8:	49 89 f6             	mov    %rsi,%r14
  401ffb:	49 89 d5             	mov    %rdx,%r13
  401ffe:	4c 8d 67 10          	lea    0x10(%rdi),%r12
  402002:	eb 2a                	jmp    40202e <rio_read+0x41>
  402004:	ba 00 20 00 00       	mov    $0x2000,%edx
  402009:	4c 89 e6             	mov    %r12,%rsi
  40200c:	8b 3b                	mov    (%rbx),%edi
  40200e:	e8 8d ec ff ff       	callq  400ca0 <read@plt>
  402013:	89 43 04             	mov    %eax,0x4(%rbx)
  402016:	85 c0                	test   %eax,%eax
  402018:	79 0c                	jns    402026 <rio_read+0x39>
  40201a:	e8 d1 eb ff ff       	callq  400bf0 <__errno_location@plt>
  40201f:	83 38 04             	cmpl   $0x4,(%rax)
  402022:	74 0a                	je     40202e <rio_read+0x41>
  402024:	eb 37                	jmp    40205d <rio_read+0x70>
  402026:	85 c0                	test   %eax,%eax
  402028:	74 3c                	je     402066 <rio_read+0x79>
  40202a:	4c 89 63 08          	mov    %r12,0x8(%rbx)
  40202e:	8b 6b 04             	mov    0x4(%rbx),%ebp
  402031:	85 ed                	test   %ebp,%ebp
  402033:	7e cf                	jle    402004 <rio_read+0x17>
  402035:	89 e8                	mov    %ebp,%eax
  402037:	4c 39 e8             	cmp    %r13,%rax
  40203a:	72 03                	jb     40203f <rio_read+0x52>
  40203c:	44 89 ed             	mov    %r13d,%ebp
  40203f:	4c 63 e5             	movslq %ebp,%r12
  402042:	48 8b 73 08          	mov    0x8(%rbx),%rsi
  402046:	4c 89 e2             	mov    %r12,%rdx
  402049:	4c 89 f7             	mov    %r14,%rdi
  40204c:	e8 af ec ff ff       	callq  400d00 <memcpy@plt>
  402051:	4c 01 63 08          	add    %r12,0x8(%rbx)
  402055:	29 6b 04             	sub    %ebp,0x4(%rbx)
  402058:	4c 89 e0             	mov    %r12,%rax
  40205b:	eb 0e                	jmp    40206b <rio_read+0x7e>
  40205d:	48 c7 c0 ff ff ff ff 	mov    $0xffffffffffffffff,%rax
  402064:	eb 05                	jmp    40206b <rio_read+0x7e>
  402066:	b8 00 00 00 00       	mov    $0x0,%eax
  40206b:	5b                   	pop    %rbx
  40206c:	5d                   	pop    %rbp
  40206d:	41 5c                	pop    %r12
  40206f:	41 5d                	pop    %r13
  402071:	41 5e                	pop    %r14
  402073:	c3                   	retq   

0000000000402074 <rio_readlineb>:
  402074:	41 55                	push   %r13
  402076:	41 54                	push   %r12
  402078:	55                   	push   %rbp
  402079:	53                   	push   %rbx
  40207a:	48 83 ec 18          	sub    $0x18,%rsp
  40207e:	49 89 fd             	mov    %rdi,%r13
  402081:	48 89 f5             	mov    %rsi,%rbp
  402084:	49 89 d4             	mov    %rdx,%r12
  402087:	bb 01 00 00 00       	mov    $0x1,%ebx
  40208c:	eb 3d                	jmp    4020cb <rio_readlineb+0x57>
  40208e:	ba 01 00 00 00       	mov    $0x1,%edx
  402093:	48 8d 74 24 0f       	lea    0xf(%rsp),%rsi
  402098:	4c 89 ef             	mov    %r13,%rdi
  40209b:	e8 4d ff ff ff       	callq  401fed <rio_read>
  4020a0:	83 f8 01             	cmp    $0x1,%eax
  4020a3:	75 12                	jne    4020b7 <rio_readlineb+0x43>
  4020a5:	48 8d 55 01          	lea    0x1(%rbp),%rdx
  4020a9:	0f b6 44 24 0f       	movzbl 0xf(%rsp),%eax
  4020ae:	88 45 00             	mov    %al,0x0(%rbp)
  4020b1:	3c 0a                	cmp    $0xa,%al
  4020b3:	75 0f                	jne    4020c4 <rio_readlineb+0x50>
  4020b5:	eb 1b                	jmp    4020d2 <rio_readlineb+0x5e>
  4020b7:	85 c0                	test   %eax,%eax
  4020b9:	75 23                	jne    4020de <rio_readlineb+0x6a>
  4020bb:	48 83 fb 01          	cmp    $0x1,%rbx
  4020bf:	90                   	nop
  4020c0:	75 13                	jne    4020d5 <rio_readlineb+0x61>
  4020c2:	eb 23                	jmp    4020e7 <rio_readlineb+0x73>
  4020c4:	48 83 c3 01          	add    $0x1,%rbx
  4020c8:	48 89 d5             	mov    %rdx,%rbp
  4020cb:	4c 39 e3             	cmp    %r12,%rbx
  4020ce:	72 be                	jb     40208e <rio_readlineb+0x1a>
  4020d0:	eb 03                	jmp    4020d5 <rio_readlineb+0x61>
  4020d2:	48 89 d5             	mov    %rdx,%rbp
  4020d5:	c6 45 00 00          	movb   $0x0,0x0(%rbp)
  4020d9:	48 89 d8             	mov    %rbx,%rax
  4020dc:	eb 0e                	jmp    4020ec <rio_readlineb+0x78>
  4020de:	48 c7 c0 ff ff ff ff 	mov    $0xffffffffffffffff,%rax
  4020e5:	eb 05                	jmp    4020ec <rio_readlineb+0x78>
  4020e7:	b8 00 00 00 00       	mov    $0x0,%eax
  4020ec:	48 83 c4 18          	add    $0x18,%rsp
  4020f0:	5b                   	pop    %rbx
  4020f1:	5d                   	pop    %rbp
  4020f2:	41 5c                	pop    %r12
  4020f4:	41 5d                	pop    %r13
  4020f6:	c3                   	retq   

00000000004020f7 <submitr>:
  4020f7:	41 57                	push   %r15
  4020f9:	41 56                	push   %r14
  4020fb:	41 55                	push   %r13
  4020fd:	41 54                	push   %r12
  4020ff:	55                   	push   %rbp
  402100:	53                   	push   %rbx
  402101:	48 81 ec 48 a0 00 00 	sub    $0xa048,%rsp
  402108:	49 89 fc             	mov    %rdi,%r12
  40210b:	89 74 24 04          	mov    %esi,0x4(%rsp)
  40210f:	49 89 d7             	mov    %rdx,%r15
  402112:	49 89 ce             	mov    %rcx,%r14
  402115:	4c 89 44 24 08       	mov    %r8,0x8(%rsp)
  40211a:	4d 89 cd             	mov    %r9,%r13
  40211d:	48 8b 9c 24 80 a0 00 	mov    0xa080(%rsp),%rbx
  402124:	00 
  402125:	c7 84 24 1c 20 00 00 	movl   $0x0,0x201c(%rsp)
  40212c:	00 00 00 00 
  402130:	ba 00 00 00 00       	mov    $0x0,%edx
  402135:	be 01 00 00 00       	mov    $0x1,%esi
  40213a:	bf 02 00 00 00       	mov    $0x2,%edi
  40213f:	e8 9c ec ff ff       	callq  400de0 <socket@plt>
  402144:	89 c5                	mov    %eax,%ebp
  402146:	85 c0                	test   %eax,%eax
  402148:	79 4e                	jns    402198 <submitr+0xa1>
  40214a:	48 b8 45 72 72 6f 72 	movabs $0x43203a726f727245,%rax
  402151:	3a 20 43 
  402154:	48 89 03             	mov    %rax,(%rbx)
  402157:	48 b8 6c 69 65 6e 74 	movabs $0x6e7520746e65696c,%rax
  40215e:	20 75 6e 
  402161:	48 89 43 08          	mov    %rax,0x8(%rbx)
  402165:	48 b8 61 62 6c 65 20 	movabs $0x206f7420656c6261,%rax
  40216c:	74 6f 20 
  40216f:	48 89 43 10          	mov    %rax,0x10(%rbx)
  402173:	48 b8 63 72 65 61 74 	movabs $0x7320657461657263,%rax
  40217a:	65 20 73 
  40217d:	48 89 43 18          	mov    %rax,0x18(%rbx)
  402181:	c7 43 20 6f 63 6b 65 	movl   $0x656b636f,0x20(%rbx)
  402188:	66 c7 43 24 74 00    	movw   $0x74,0x24(%rbx)
  40218e:	b8 ff ff ff ff       	mov    $0xffffffff,%eax
  402193:	e9 68 06 00 00       	jmpq   402800 <submitr+0x709>
  402198:	4c 89 e7             	mov    %r12,%rdi
  40219b:	e8 30 eb ff ff       	callq  400cd0 <gethostbyname@plt>
  4021a0:	48 85 c0             	test   %rax,%rax
  4021a3:	75 67                	jne    40220c <submitr+0x115>
  4021a5:	48 b8 45 72 72 6f 72 	movabs $0x44203a726f727245,%rax
  4021ac:	3a 20 44 
  4021af:	48 89 03             	mov    %rax,(%rbx)
  4021b2:	48 b8 4e 53 20 69 73 	movabs $0x6e7520736920534e,%rax
  4021b9:	20 75 6e 
  4021bc:	48 89 43 08          	mov    %rax,0x8(%rbx)
  4021c0:	48 b8 61 62 6c 65 20 	movabs $0x206f7420656c6261,%rax
  4021c7:	74 6f 20 
  4021ca:	48 89 43 10          	mov    %rax,0x10(%rbx)
  4021ce:	48 b8 72 65 73 6f 6c 	movabs $0x2065766c6f736572,%rax
  4021d5:	76 65 20 
  4021d8:	48 89 43 18          	mov    %rax,0x18(%rbx)
  4021dc:	48 b8 73 65 72 76 65 	movabs $0x6120726576726573,%rax
  4021e3:	72 20 61 
  4021e6:	48 89 43 20          	mov    %rax,0x20(%rbx)
  4021ea:	c7 43 28 64 64 72 65 	movl   $0x65726464,0x28(%rbx)
  4021f1:	66 c7 43 2c 73 73    	movw   $0x7373,0x2c(%rbx)
  4021f7:	c6 43 2e 00          	movb   $0x0,0x2e(%rbx)
  4021fb:	89 ef                	mov    %ebp,%edi
  4021fd:	e8 8e ea ff ff       	callq  400c90 <close@plt>
  402202:	b8 ff ff ff ff       	mov    $0xffffffff,%eax
  402207:	e9 f4 05 00 00       	jmpq   402800 <submitr+0x709>
  40220c:	48 c7 84 24 30 a0 00 	movq   $0x0,0xa030(%rsp)
  402213:	00 00 00 00 00 
  402218:	48 c7 84 24 38 a0 00 	movq   $0x0,0xa038(%rsp)
  40221f:	00 00 00 00 00 
  402224:	66 c7 84 24 30 a0 00 	movw   $0x2,0xa030(%rsp)
  40222b:	00 02 00 
  40222e:	48 8b 48 18          	mov    0x18(%rax),%rcx
  402232:	48 63 50 14          	movslq 0x14(%rax),%rdx
  402236:	48 8d b4 24 34 a0 00 	lea    0xa034(%rsp),%rsi
  40223d:	00 
  40223e:	48 8b 39             	mov    (%rcx),%rdi
  402241:	e8 1a eb ff ff       	callq  400d60 <bcopy@plt>
  402246:	0f b7 44 24 04       	movzwl 0x4(%rsp),%eax
  40224b:	66 c1 c8 08          	ror    $0x8,%ax
  40224f:	66 89 84 24 32 a0 00 	mov    %ax,0xa032(%rsp)
  402256:	00 
  402257:	ba 10 00 00 00       	mov    $0x10,%edx
  40225c:	48 8d b4 24 30 a0 00 	lea    0xa030(%rsp),%rsi
  402263:	00 
  402264:	89 ef                	mov    %ebp,%edi
  402266:	e8 65 eb ff ff       	callq  400dd0 <connect@plt>
  40226b:	85 c0                	test   %eax,%eax
  40226d:	79 59                	jns    4022c8 <submitr+0x1d1>
  40226f:	48 b8 45 72 72 6f 72 	movabs $0x55203a726f727245,%rax
  402276:	3a 20 55 
  402279:	48 89 03             	mov    %rax,(%rbx)
  40227c:	48 b8 6e 61 62 6c 65 	movabs $0x6f7420656c62616e,%rax
  402283:	20 74 6f 
  402286:	48 89 43 08          	mov    %rax,0x8(%rbx)
  40228a:	48 b8 20 63 6f 6e 6e 	movabs $0x7463656e6e6f6320,%rax
  402291:	65 63 74 
  402294:	48 89 43 10          	mov    %rax,0x10(%rbx)
  402298:	48 b8 20 74 6f 20 74 	movabs $0x20656874206f7420,%rax
  40229f:	68 65 20 
  4022a2:	48 89 43 18          	mov    %rax,0x18(%rbx)
  4022a6:	c7 43 20 73 65 72 76 	movl   $0x76726573,0x20(%rbx)
  4022ad:	66 c7 43 24 65 72    	movw   $0x7265,0x24(%rbx)
  4022b3:	c6 43 26 00          	movb   $0x0,0x26(%rbx)
  4022b7:	89 ef                	mov    %ebp,%edi
  4022b9:	e8 d2 e9 ff ff       	callq  400c90 <close@plt>
  4022be:	b8 ff ff ff ff       	mov    $0xffffffff,%eax
  4022c3:	e9 38 05 00 00       	jmpq   402800 <submitr+0x709>
  4022c8:	48 c7 c2 ff ff ff ff 	mov    $0xffffffffffffffff,%rdx
  4022cf:	4c 89 ef             	mov    %r13,%rdi
  4022d2:	b8 00 00 00 00       	mov    $0x0,%eax
  4022d7:	48 89 d1             	mov    %rdx,%rcx
  4022da:	f2 ae                	repnz scas %es:(%rdi),%al
  4022dc:	48 f7 d1             	not    %rcx
  4022df:	48 89 ce             	mov    %rcx,%rsi
  4022e2:	4c 89 ff             	mov    %r15,%rdi
  4022e5:	48 89 d1             	mov    %rdx,%rcx
  4022e8:	f2 ae                	repnz scas %es:(%rdi),%al
  4022ea:	48 f7 d1             	not    %rcx
  4022ed:	49 89 c8             	mov    %rcx,%r8
  4022f0:	4c 89 f7             	mov    %r14,%rdi
  4022f3:	48 89 d1             	mov    %rdx,%rcx
  4022f6:	f2 ae                	repnz scas %es:(%rdi),%al
  4022f8:	49 29 c8             	sub    %rcx,%r8
  4022fb:	48 8b 7c 24 08       	mov    0x8(%rsp),%rdi
  402300:	48 89 d1             	mov    %rdx,%rcx
  402303:	f2 ae                	repnz scas %es:(%rdi),%al
  402305:	49 29 c8             	sub    %rcx,%r8
  402308:	48 8d 44 76 fd       	lea    -0x3(%rsi,%rsi,2),%rax
  40230d:	49 8d 44 00 7b       	lea    0x7b(%r8,%rax,1),%rax
  402312:	48 3d 00 20 00 00    	cmp    $0x2000,%rax
  402318:	76 72                	jbe    40238c <submitr+0x295>
  40231a:	48 b8 45 72 72 6f 72 	movabs $0x52203a726f727245,%rax
  402321:	3a 20 52 
  402324:	48 89 03             	mov    %rax,(%rbx)
  402327:	48 b8 65 73 75 6c 74 	movabs $0x747320746c757365,%rax
  40232e:	20 73 74 
  402331:	48 89 43 08          	mov    %rax,0x8(%rbx)
  402335:	48 b8 72 69 6e 67 20 	movabs $0x6f6f7420676e6972,%rax
  40233c:	74 6f 6f 
  40233f:	48 89 43 10          	mov    %rax,0x10(%rbx)
  402343:	48 b8 20 6c 61 72 67 	movabs $0x202e656772616c20,%rax
  40234a:	65 2e 20 
  40234d:	48 89 43 18          	mov    %rax,0x18(%rbx)
  402351:	48 b8 49 6e 63 72 65 	movabs $0x6573616572636e49,%rax
  402358:	61 73 65 
  40235b:	48 89 43 20          	mov    %rax,0x20(%rbx)
  40235f:	48 b8 20 53 55 42 4d 	movabs $0x5254494d42555320,%rax
  402366:	49 54 52 
  402369:	48 89 43 28          	mov    %rax,0x28(%rbx)
  40236d:	48 b8 5f 4d 41 58 42 	movabs $0x46554258414d5f,%rax
  402374:	55 46 00 
  402377:	48 89 43 30          	mov    %rax,0x30(%rbx)
  40237b:	89 ef                	mov    %ebp,%edi
  40237d:	e8 0e e9 ff ff       	callq  400c90 <close@plt>
  402382:	b8 ff ff ff ff       	mov    $0xffffffff,%eax
  402387:	e9 74 04 00 00       	jmpq   402800 <submitr+0x709>
  40238c:	48 8d b4 24 20 40 00 	lea    0x4020(%rsp),%rsi
  402393:	00 
  402394:	b9 00 04 00 00       	mov    $0x400,%ecx
  402399:	b8 00 00 00 00       	mov    $0x0,%eax
  40239e:	48 89 f7             	mov    %rsi,%rdi
  4023a1:	f3 48 ab             	rep stos %rax,%es:(%rdi)
  4023a4:	4c 89 ef             	mov    %r13,%rdi
  4023a7:	e8 0f fb ff ff       	callq  401ebb <urlencode>
  4023ac:	85 c0                	test   %eax,%eax
  4023ae:	0f 89 8a 00 00 00    	jns    40243e <submitr+0x347>
  4023b4:	48 b8 45 72 72 6f 72 	movabs $0x52203a726f727245,%rax
  4023bb:	3a 20 52 
  4023be:	48 89 03             	mov    %rax,(%rbx)
  4023c1:	48 b8 65 73 75 6c 74 	movabs $0x747320746c757365,%rax
  4023c8:	20 73 74 
  4023cb:	48 89 43 08          	mov    %rax,0x8(%rbx)
  4023cf:	48 b8 72 69 6e 67 20 	movabs $0x6e6f6320676e6972,%rax
  4023d6:	63 6f 6e 
  4023d9:	48 89 43 10          	mov    %rax,0x10(%rbx)
  4023dd:	48 b8 74 61 69 6e 73 	movabs $0x6e6120736e696174,%rax
  4023e4:	20 61 6e 
  4023e7:	48 89 43 18          	mov    %rax,0x18(%rbx)
  4023eb:	48 b8 20 69 6c 6c 65 	movabs $0x6c6167656c6c6920,%rax
  4023f2:	67 61 6c 
  4023f5:	48 89 43 20          	mov    %rax,0x20(%rbx)
  4023f9:	48 b8 20 6f 72 20 75 	movabs $0x72706e7520726f20,%rax
  402400:	6e 70 72 
  402403:	48 89 43 28          	mov    %rax,0x28(%rbx)
  402407:	48 b8 69 6e 74 61 62 	movabs $0x20656c6261746e69,%rax
  40240e:	6c 65 20 
  402411:	48 89 43 30          	mov    %rax,0x30(%rbx)
  402415:	48 b8 63 68 61 72 61 	movabs $0x6574636172616863,%rax
  40241c:	63 74 65 
  40241f:	48 89 43 38          	mov    %rax,0x38(%rbx)
  402423:	66 c7 43 40 72 2e    	movw   $0x2e72,0x40(%rbx)
  402429:	c6 43 42 00          	movb   $0x0,0x42(%rbx)
  40242d:	89 ef                	mov    %ebp,%edi
  40242f:	e8 5c e8 ff ff       	callq  400c90 <close@plt>
  402434:	b8 ff ff ff ff       	mov    $0xffffffff,%eax
  402439:	e9 c2 03 00 00       	jmpq   402800 <submitr+0x709>
  40243e:	4d 89 e1             	mov    %r12,%r9
  402441:	4c 8d 84 24 20 40 00 	lea    0x4020(%rsp),%r8
  402448:	00 
  402449:	4c 89 f9             	mov    %r15,%rcx
  40244c:	4c 89 f2             	mov    %r14,%rdx
  40244f:	be b8 32 40 00       	mov    $0x4032b8,%esi
  402454:	48 8d bc 24 20 60 00 	lea    0x6020(%rsp),%rdi
  40245b:	00 
  40245c:	b8 00 00 00 00       	mov    $0x0,%eax
  402461:	e8 4a e9 ff ff       	callq  400db0 <sprintf@plt>
  402466:	48 8d bc 24 20 60 00 	lea    0x6020(%rsp),%rdi
  40246d:	00 
  40246e:	b8 00 00 00 00       	mov    $0x0,%eax
  402473:	48 c7 c1 ff ff ff ff 	mov    $0xffffffffffffffff,%rcx
  40247a:	f2 ae                	repnz scas %es:(%rdi),%al
  40247c:	48 f7 d1             	not    %rcx
  40247f:	48 8d 51 ff          	lea    -0x1(%rcx),%rdx
  402483:	48 8d b4 24 20 60 00 	lea    0x6020(%rsp),%rsi
  40248a:	00 
  40248b:	89 ef                	mov    %ebp,%edi
  40248d:	e8 ff fa ff ff       	callq  401f91 <rio_writen>
  402492:	48 85 c0             	test   %rax,%rax
  402495:	79 6e                	jns    402505 <submitr+0x40e>
  402497:	48 b8 45 72 72 6f 72 	movabs $0x43203a726f727245,%rax
  40249e:	3a 20 43 
  4024a1:	48 89 03             	mov    %rax,(%rbx)
  4024a4:	48 b8 6c 69 65 6e 74 	movabs $0x6e7520746e65696c,%rax
  4024ab:	20 75 6e 
  4024ae:	48 89 43 08          	mov    %rax,0x8(%rbx)
  4024b2:	48 b8 61 62 6c 65 20 	movabs $0x206f7420656c6261,%rax
  4024b9:	74 6f 20 
  4024bc:	48 89 43 10          	mov    %rax,0x10(%rbx)
  4024c0:	48 b8 77 72 69 74 65 	movabs $0x6f74206574697277,%rax
  4024c7:	20 74 6f 
  4024ca:	48 89 43 18          	mov    %rax,0x18(%rbx)
  4024ce:	48 b8 20 74 68 65 20 	movabs $0x7365722065687420,%rax
  4024d5:	72 65 73 
  4024d8:	48 89 43 20          	mov    %rax,0x20(%rbx)
  4024dc:	48 b8 75 6c 74 20 73 	movabs $0x7672657320746c75,%rax
  4024e3:	65 72 76 
  4024e6:	48 89 43 28          	mov    %rax,0x28(%rbx)
  4024ea:	66 c7 43 30 65 72    	movw   $0x7265,0x30(%rbx)
  4024f0:	c6 43 32 00          	movb   $0x0,0x32(%rbx)
  4024f4:	89 ef                	mov    %ebp,%edi
  4024f6:	e8 95 e7 ff ff       	callq  400c90 <close@plt>
  4024fb:	b8 ff ff ff ff       	mov    $0xffffffff,%eax
  402500:	e9 fb 02 00 00       	jmpq   402800 <submitr+0x709>
  402505:	89 ee                	mov    %ebp,%esi
  402507:	48 8d bc 24 20 80 00 	lea    0x8020(%rsp),%rdi
  40250e:	00 
  40250f:	e8 6c f9 ff ff       	callq  401e80 <rio_readinitb>
  402514:	ba 00 20 00 00       	mov    $0x2000,%edx
  402519:	48 8d b4 24 20 60 00 	lea    0x6020(%rsp),%rsi
  402520:	00 
  402521:	48 8d bc 24 20 80 00 	lea    0x8020(%rsp),%rdi
  402528:	00 
  402529:	e8 46 fb ff ff       	callq  402074 <rio_readlineb>
  40252e:	48 85 c0             	test   %rax,%rax
  402531:	7f 7d                	jg     4025b0 <submitr+0x4b9>
  402533:	48 b8 45 72 72 6f 72 	movabs $0x43203a726f727245,%rax
  40253a:	3a 20 43 
  40253d:	48 89 03             	mov    %rax,(%rbx)
  402540:	48 b8 6c 69 65 6e 74 	movabs $0x6e7520746e65696c,%rax
  402547:	20 75 6e 
  40254a:	48 89 43 08          	mov    %rax,0x8(%rbx)
  40254e:	48 b8 61 62 6c 65 20 	movabs $0x206f7420656c6261,%rax
  402555:	74 6f 20 
  402558:	48 89 43 10          	mov    %rax,0x10(%rbx)
  40255c:	48 b8 72 65 61 64 20 	movabs $0x7269662064616572,%rax
  402563:	66 69 72 
  402566:	48 89 43 18          	mov    %rax,0x18(%rbx)
  40256a:	48 b8 73 74 20 68 65 	movabs $0x6564616568207473,%rax
  402571:	61 64 65 
  402574:	48 89 43 20          	mov    %rax,0x20(%rbx)
  402578:	48 b8 72 20 66 72 6f 	movabs $0x72206d6f72662072,%rax
  40257f:	6d 20 72 
  402582:	48 89 43 28          	mov    %rax,0x28(%rbx)
  402586:	48 b8 65 73 75 6c 74 	movabs $0x657320746c757365,%rax
  40258d:	20 73 65 
  402590:	48 89 43 30          	mov    %rax,0x30(%rbx)
  402594:	c7 43 38 72 76 65 72 	movl   $0x72657672,0x38(%rbx)
  40259b:	c6 43 3c 00          	movb   $0x0,0x3c(%rbx)
  40259f:	89 ef                	mov    %ebp,%edi
  4025a1:	e8 ea e6 ff ff       	callq  400c90 <close@plt>
  4025a6:	b8 ff ff ff ff       	mov    $0xffffffff,%eax
  4025ab:	e9 50 02 00 00       	jmpq   402800 <submitr+0x709>
  4025b0:	4c 8d 44 24 10       	lea    0x10(%rsp),%r8
  4025b5:	48 8d 8c 24 1c 20 00 	lea    0x201c(%rsp),%rcx
  4025bc:	00 
  4025bd:	48 8d 94 24 20 20 00 	lea    0x2020(%rsp),%rdx
  4025c4:	00 
  4025c5:	be 2f 33 40 00       	mov    $0x40332f,%esi
  4025ca:	48 8d bc 24 20 60 00 	lea    0x6020(%rsp),%rdi
  4025d1:	00 
  4025d2:	b8 00 00 00 00       	mov    $0x0,%eax
  4025d7:	e8 64 e7 ff ff       	callq  400d40 <__isoc99_sscanf@plt>
  4025dc:	e9 98 00 00 00       	jmpq   402679 <submitr+0x582>
  4025e1:	ba 00 20 00 00       	mov    $0x2000,%edx
  4025e6:	48 8d b4 24 20 60 00 	lea    0x6020(%rsp),%rsi
  4025ed:	00 
  4025ee:	48 8d bc 24 20 80 00 	lea    0x8020(%rsp),%rdi
  4025f5:	00 
  4025f6:	e8 79 fa ff ff       	callq  402074 <rio_readlineb>
  4025fb:	48 85 c0             	test   %rax,%rax
  4025fe:	7f 79                	jg     402679 <submitr+0x582>
  402600:	48 b8 45 72 72 6f 72 	movabs $0x43203a726f727245,%rax
  402607:	3a 20 43 
  40260a:	48 89 03             	mov    %rax,(%rbx)
  40260d:	48 b8 6c 69 65 6e 74 	movabs $0x6e7520746e65696c,%rax
  402614:	20 75 6e 
  402617:	48 89 43 08          	mov    %rax,0x8(%rbx)
  40261b:	48 b8 61 62 6c 65 20 	movabs $0x206f7420656c6261,%rax
  402622:	74 6f 20 
  402625:	48 89 43 10          	mov    %rax,0x10(%rbx)
  402629:	48 b8 72 65 61 64 20 	movabs $0x6165682064616572,%rax
  402630:	68 65 61 
  402633:	48 89 43 18          	mov    %rax,0x18(%rbx)
  402637:	48 b8 64 65 72 73 20 	movabs $0x6f72662073726564,%rax
  40263e:	66 72 6f 
  402641:	48 89 43 20          	mov    %rax,0x20(%rbx)
  402645:	48 b8 6d 20 74 68 65 	movabs $0x657220656874206d,%rax
  40264c:	20 72 65 
  40264f:	48 89 43 28          	mov    %rax,0x28(%rbx)
  402653:	48 b8 73 75 6c 74 20 	movabs $0x72657320746c7573,%rax
  40265a:	73 65 72 
  40265d:	48 89 43 30          	mov    %rax,0x30(%rbx)
  402661:	c7 43 38 76 65 72 00 	movl   $0x726576,0x38(%rbx)
  402668:	89 ef                	mov    %ebp,%edi
  40266a:	e8 21 e6 ff ff       	callq  400c90 <close@plt>
  40266f:	b8 ff ff ff ff       	mov    $0xffffffff,%eax
  402674:	e9 87 01 00 00       	jmpq   402800 <submitr+0x709>
  402679:	0f b6 84 24 20 60 00 	movzbl 0x6020(%rsp),%eax
  402680:	00 
  402681:	83 e8 0d             	sub    $0xd,%eax
  402684:	75 15                	jne    40269b <submitr+0x5a4>
  402686:	0f b6 84 24 21 60 00 	movzbl 0x6021(%rsp),%eax
  40268d:	00 
  40268e:	83 e8 0a             	sub    $0xa,%eax
  402691:	75 08                	jne    40269b <submitr+0x5a4>
  402693:	0f b6 84 24 22 60 00 	movzbl 0x6022(%rsp),%eax
  40269a:	00 
  40269b:	85 c0                	test   %eax,%eax
  40269d:	0f 85 3e ff ff ff    	jne    4025e1 <submitr+0x4ea>
  4026a3:	ba 00 20 00 00       	mov    $0x2000,%edx
  4026a8:	48 8d b4 24 20 60 00 	lea    0x6020(%rsp),%rsi
  4026af:	00 
  4026b0:	48 8d bc 24 20 80 00 	lea    0x8020(%rsp),%rdi
  4026b7:	00 
  4026b8:	e8 b7 f9 ff ff       	callq  402074 <rio_readlineb>
  4026bd:	48 85 c0             	test   %rax,%rax
  4026c0:	0f 8f 83 00 00 00    	jg     402749 <submitr+0x652>
  4026c6:	48 b8 45 72 72 6f 72 	movabs $0x43203a726f727245,%rax
  4026cd:	3a 20 43 
  4026d0:	48 89 03             	mov    %rax,(%rbx)
  4026d3:	48 b8 6c 69 65 6e 74 	movabs $0x6e7520746e65696c,%rax
  4026da:	20 75 6e 
  4026dd:	48 89 43 08          	mov    %rax,0x8(%rbx)
  4026e1:	48 b8 61 62 6c 65 20 	movabs $0x206f7420656c6261,%rax
  4026e8:	74 6f 20 
  4026eb:	48 89 43 10          	mov    %rax,0x10(%rbx)
  4026ef:	48 b8 72 65 61 64 20 	movabs $0x6174732064616572,%rax
  4026f6:	73 74 61 
  4026f9:	48 89 43 18          	mov    %rax,0x18(%rbx)
  4026fd:	48 b8 74 75 73 20 6d 	movabs $0x7373656d20737574,%rax
  402704:	65 73 73 
  402707:	48 89 43 20          	mov    %rax,0x20(%rbx)
  40270b:	48 b8 61 67 65 20 66 	movabs $0x6d6f726620656761,%rax
  402712:	72 6f 6d 
  402715:	48 89 43 28          	mov    %rax,0x28(%rbx)
  402719:	48 b8 20 72 65 73 75 	movabs $0x20746c7573657220,%rax
  402720:	6c 74 20 
  402723:	48 89 43 30          	mov    %rax,0x30(%rbx)
  402727:	c7 43 38 73 65 72 76 	movl   $0x76726573,0x38(%rbx)
  40272e:	66 c7 43 3c 65 72    	movw   $0x7265,0x3c(%rbx)
  402734:	c6 43 3e 00          	movb   $0x0,0x3e(%rbx)
  402738:	89 ef                	mov    %ebp,%edi
  40273a:	e8 51 e5 ff ff       	callq  400c90 <close@plt>
  40273f:	b8 ff ff ff ff       	mov    $0xffffffff,%eax
  402744:	e9 b7 00 00 00       	jmpq   402800 <submitr+0x709>
  402749:	8b 94 24 1c 20 00 00 	mov    0x201c(%rsp),%edx
  402750:	81 fa c8 00 00 00    	cmp    $0xc8,%edx
  402756:	74 28                	je     402780 <submitr+0x689>
  402758:	48 8d 4c 24 10       	lea    0x10(%rsp),%rcx
  40275d:	be f8 32 40 00       	mov    $0x4032f8,%esi
  402762:	48 89 df             	mov    %rbx,%rdi
  402765:	b8 00 00 00 00       	mov    $0x0,%eax
  40276a:	e8 41 e6 ff ff       	callq  400db0 <sprintf@plt>
  40276f:	89 ef                	mov    %ebp,%edi
  402771:	e8 1a e5 ff ff       	callq  400c90 <close@plt>
  402776:	b8 ff ff ff ff       	mov    $0xffffffff,%eax
  40277b:	e9 80 00 00 00       	jmpq   402800 <submitr+0x709>
  402780:	48 8d b4 24 20 60 00 	lea    0x6020(%rsp),%rsi
  402787:	00 
  402788:	48 89 df             	mov    %rbx,%rdi
  40278b:	e8 90 e4 ff ff       	callq  400c20 <strcpy@plt>
  402790:	89 ef                	mov    %ebp,%edi
  402792:	e8 f9 e4 ff ff       	callq  400c90 <close@plt>
  402797:	0f b6 03             	movzbl (%rbx),%eax
  40279a:	83 e8 4f             	sub    $0x4f,%eax
  40279d:	75 18                	jne    4027b7 <submitr+0x6c0>
  40279f:	0f b6 53 01          	movzbl 0x1(%rbx),%edx
  4027a3:	83 ea 4b             	sub    $0x4b,%edx
  4027a6:	75 11                	jne    4027b9 <submitr+0x6c2>
  4027a8:	0f b6 53 02          	movzbl 0x2(%rbx),%edx
  4027ac:	83 ea 0a             	sub    $0xa,%edx
  4027af:	75 08                	jne    4027b9 <submitr+0x6c2>
  4027b1:	0f b6 53 03          	movzbl 0x3(%rbx),%edx
  4027b5:	eb 02                	jmp    4027b9 <submitr+0x6c2>
  4027b7:	89 c2                	mov    %eax,%edx
  4027b9:	85 d2                	test   %edx,%edx
  4027bb:	74 30                	je     4027ed <submitr+0x6f6>
  4027bd:	bf 40 33 40 00       	mov    $0x403340,%edi
  4027c2:	b9 05 00 00 00       	mov    $0x5,%ecx
  4027c7:	48 89 de             	mov    %rbx,%rsi
  4027ca:	f3 a6                	repz cmpsb %es:(%rdi),%ds:(%rsi)
  4027cc:	0f 97 c1             	seta   %cl
  4027cf:	0f 92 c2             	setb   %dl
  4027d2:	38 d1                	cmp    %dl,%cl
  4027d4:	74 1e                	je     4027f4 <submitr+0x6fd>
  4027d6:	85 c0                	test   %eax,%eax
  4027d8:	75 0d                	jne    4027e7 <submitr+0x6f0>
  4027da:	0f b6 43 01          	movzbl 0x1(%rbx),%eax
  4027de:	83 e8 4b             	sub    $0x4b,%eax
  4027e1:	75 04                	jne    4027e7 <submitr+0x6f0>
  4027e3:	0f b6 43 02          	movzbl 0x2(%rbx),%eax
  4027e7:	85 c0                	test   %eax,%eax
  4027e9:	75 10                	jne    4027fb <submitr+0x704>
  4027eb:	eb 13                	jmp    402800 <submitr+0x709>
  4027ed:	b8 00 00 00 00       	mov    $0x0,%eax
  4027f2:	eb 0c                	jmp    402800 <submitr+0x709>
  4027f4:	b8 00 00 00 00       	mov    $0x0,%eax
  4027f9:	eb 05                	jmp    402800 <submitr+0x709>
  4027fb:	b8 ff ff ff ff       	mov    $0xffffffff,%eax
  402800:	48 81 c4 48 a0 00 00 	add    $0xa048,%rsp
  402807:	5b                   	pop    %rbx
  402808:	5d                   	pop    %rbp
  402809:	41 5c                	pop    %r12
  40280b:	41 5d                	pop    %r13
  40280d:	41 5e                	pop    %r14
  40280f:	41 5f                	pop    %r15
  402811:	c3                   	retq   

0000000000402812 <init_timeout>:
  402812:	53                   	push   %rbx
  402813:	89 fb                	mov    %edi,%ebx
  402815:	85 ff                	test   %edi,%edi
  402817:	74 1f                	je     402838 <init_timeout+0x26>
  402819:	85 ff                	test   %edi,%edi
  40281b:	79 05                	jns    402822 <init_timeout+0x10>
  40281d:	bb 00 00 00 00       	mov    $0x0,%ebx
  402822:	be 92 1e 40 00       	mov    $0x401e92,%esi
  402827:	bf 0e 00 00 00       	mov    $0xe,%edi
  40282c:	e8 8f e4 ff ff       	callq  400cc0 <signal@plt>
  402831:	89 df                	mov    %ebx,%edi
  402833:	e8 48 e4 ff ff       	callq  400c80 <alarm@plt>
  402838:	5b                   	pop    %rbx
  402839:	c3                   	retq   

000000000040283a <init_driver>:
  40283a:	55                   	push   %rbp
  40283b:	53                   	push   %rbx
  40283c:	48 83 ec 18          	sub    $0x18,%rsp
  402840:	48 89 fd             	mov    %rdi,%rbp
  402843:	be 01 00 00 00       	mov    $0x1,%esi
  402848:	bf 0d 00 00 00       	mov    $0xd,%edi
  40284d:	e8 6e e4 ff ff       	callq  400cc0 <signal@plt>
  402852:	be 01 00 00 00       	mov    $0x1,%esi
  402857:	bf 1d 00 00 00       	mov    $0x1d,%edi
  40285c:	e8 5f e4 ff ff       	callq  400cc0 <signal@plt>
  402861:	be 01 00 00 00       	mov    $0x1,%esi
  402866:	bf 1d 00 00 00       	mov    $0x1d,%edi
  40286b:	e8 50 e4 ff ff       	callq  400cc0 <signal@plt>
  402870:	ba 00 00 00 00       	mov    $0x0,%edx
  402875:	be 01 00 00 00       	mov    $0x1,%esi
  40287a:	bf 02 00 00 00       	mov    $0x2,%edi
  40287f:	e8 5c e5 ff ff       	callq  400de0 <socket@plt>
  402884:	89 c3                	mov    %eax,%ebx
  402886:	85 c0                	test   %eax,%eax
  402888:	79 4f                	jns    4028d9 <init_driver+0x9f>
  40288a:	48 b8 45 72 72 6f 72 	movabs $0x43203a726f727245,%rax
  402891:	3a 20 43 
  402894:	48 89 45 00          	mov    %rax,0x0(%rbp)
  402898:	48 b8 6c 69 65 6e 74 	movabs $0x6e7520746e65696c,%rax
  40289f:	20 75 6e 
  4028a2:	48 89 45 08          	mov    %rax,0x8(%rbp)
  4028a6:	48 b8 61 62 6c 65 20 	movabs $0x206f7420656c6261,%rax
  4028ad:	74 6f 20 
  4028b0:	48 89 45 10          	mov    %rax,0x10(%rbp)
  4028b4:	48 b8 63 72 65 61 74 	movabs $0x7320657461657263,%rax
  4028bb:	65 20 73 
  4028be:	48 89 45 18          	mov    %rax,0x18(%rbp)
  4028c2:	c7 45 20 6f 63 6b 65 	movl   $0x656b636f,0x20(%rbp)
  4028c9:	66 c7 45 24 74 00    	movw   $0x74,0x24(%rbp)
  4028cf:	b8 ff ff ff ff       	mov    $0xffffffff,%eax
  4028d4:	e9 23 01 00 00       	jmpq   4029fc <init_driver+0x1c2>
  4028d9:	bf 81 2e 40 00       	mov    $0x402e81,%edi
  4028de:	e8 ed e3 ff ff       	callq  400cd0 <gethostbyname@plt>
  4028e3:	48 85 c0             	test   %rax,%rax
  4028e6:	75 68                	jne    402950 <init_driver+0x116>
  4028e8:	48 b8 45 72 72 6f 72 	movabs $0x44203a726f727245,%rax
  4028ef:	3a 20 44 
  4028f2:	48 89 45 00          	mov    %rax,0x0(%rbp)
  4028f6:	48 b8 4e 53 20 69 73 	movabs $0x6e7520736920534e,%rax
  4028fd:	20 75 6e 
  402900:	48 89 45 08          	mov    %rax,0x8(%rbp)
  402904:	48 b8 61 62 6c 65 20 	movabs $0x206f7420656c6261,%rax
  40290b:	74 6f 20 
  40290e:	48 89 45 10          	mov    %rax,0x10(%rbp)
  402912:	48 b8 72 65 73 6f 6c 	movabs $0x2065766c6f736572,%rax
  402919:	76 65 20 
  40291c:	48 89 45 18          	mov    %rax,0x18(%rbp)
  402920:	48 b8 73 65 72 76 65 	movabs $0x6120726576726573,%rax
  402927:	72 20 61 
  40292a:	48 89 45 20          	mov    %rax,0x20(%rbp)
  40292e:	c7 45 28 64 64 72 65 	movl   $0x65726464,0x28(%rbp)
  402935:	66 c7 45 2c 73 73    	movw   $0x7373,0x2c(%rbp)
  40293b:	c6 45 2e 00          	movb   $0x0,0x2e(%rbp)
  40293f:	89 df                	mov    %ebx,%edi
  402941:	e8 4a e3 ff ff       	callq  400c90 <close@plt>
  402946:	b8 ff ff ff ff       	mov    $0xffffffff,%eax
  40294b:	e9 ac 00 00 00       	jmpq   4029fc <init_driver+0x1c2>
  402950:	48 c7 04 24 00 00 00 	movq   $0x0,(%rsp)
  402957:	00 
  402958:	48 c7 44 24 08 00 00 	movq   $0x0,0x8(%rsp)
  40295f:	00 00 
  402961:	66 c7 04 24 02 00    	movw   $0x2,(%rsp)
  402967:	48 8b 48 18          	mov    0x18(%rax),%rcx
  40296b:	48 63 50 14          	movslq 0x14(%rax),%rdx
  40296f:	48 8d 74 24 04       	lea    0x4(%rsp),%rsi
  402974:	48 8b 39             	mov    (%rcx),%rdi
  402977:	e8 e4 e3 ff ff       	callq  400d60 <bcopy@plt>
  40297c:	66 c7 44 24 02 3a 99 	movw   $0x993a,0x2(%rsp)
  402983:	ba 10 00 00 00       	mov    $0x10,%edx
  402988:	48 89 e6             	mov    %rsp,%rsi
  40298b:	89 df                	mov    %ebx,%edi
  40298d:	e8 3e e4 ff ff       	callq  400dd0 <connect@plt>
  402992:	85 c0                	test   %eax,%eax
  402994:	79 50                	jns    4029e6 <init_driver+0x1ac>
  402996:	48 b8 45 72 72 6f 72 	movabs $0x55203a726f727245,%rax
  40299d:	3a 20 55 
  4029a0:	48 89 45 00          	mov    %rax,0x0(%rbp)
  4029a4:	48 b8 6e 61 62 6c 65 	movabs $0x6f7420656c62616e,%rax
  4029ab:	20 74 6f 
  4029ae:	48 89 45 08          	mov    %rax,0x8(%rbp)
  4029b2:	48 b8 20 63 6f 6e 6e 	movabs $0x7463656e6e6f6320,%rax
  4029b9:	65 63 74 
  4029bc:	48 89 45 10          	mov    %rax,0x10(%rbp)
  4029c0:	48 b8 20 74 6f 20 73 	movabs $0x76726573206f7420,%rax
  4029c7:	65 72 76 
  4029ca:	48 89 45 18          	mov    %rax,0x18(%rbp)
  4029ce:	66 c7 45 20 65 72    	movw   $0x7265,0x20(%rbp)
  4029d4:	c6 45 22 00          	movb   $0x0,0x22(%rbp)
  4029d8:	89 df                	mov    %ebx,%edi
  4029da:	e8 b1 e2 ff ff       	callq  400c90 <close@plt>
  4029df:	b8 ff ff ff ff       	mov    $0xffffffff,%eax
  4029e4:	eb 16                	jmp    4029fc <init_driver+0x1c2>
  4029e6:	89 df                	mov    %ebx,%edi
  4029e8:	e8 a3 e2 ff ff       	callq  400c90 <close@plt>
  4029ed:	66 c7 45 00 4f 4b    	movw   $0x4b4f,0x0(%rbp)
  4029f3:	c6 45 02 00          	movb   $0x0,0x2(%rbp)
  4029f7:	b8 00 00 00 00       	mov    $0x0,%eax
  4029fc:	48 83 c4 18          	add    $0x18,%rsp
  402a00:	5b                   	pop    %rbx
  402a01:	5d                   	pop    %rbp
  402a02:	c3                   	retq   

0000000000402a03 <driver_post>:
  402a03:	53                   	push   %rbx
  402a04:	48 83 ec 10          	sub    $0x10,%rsp
  402a08:	4c 89 cb             	mov    %r9,%rbx
  402a0b:	45 85 c0             	test   %r8d,%r8d
  402a0e:	74 22                	je     402a32 <driver_post+0x2f>
  402a10:	48 89 ce             	mov    %rcx,%rsi
  402a13:	bf 45 33 40 00       	mov    $0x403345,%edi
  402a18:	b8 00 00 00 00       	mov    $0x0,%eax
  402a1d:	e8 3e e2 ff ff       	callq  400c60 <printf@plt>
  402a22:	66 c7 03 4f 4b       	movw   $0x4b4f,(%rbx)
  402a27:	c6 43 02 00          	movb   $0x0,0x2(%rbx)
  402a2b:	b8 00 00 00 00       	mov    $0x0,%eax
  402a30:	eb 39                	jmp    402a6b <driver_post+0x68>
  402a32:	48 85 ff             	test   %rdi,%rdi
  402a35:	74 26                	je     402a5d <driver_post+0x5a>
  402a37:	80 3f 00             	cmpb   $0x0,(%rdi)
  402a3a:	74 21                	je     402a5d <driver_post+0x5a>
  402a3c:	4c 89 0c 24          	mov    %r9,(%rsp)
  402a40:	49 89 c9             	mov    %rcx,%r9
  402a43:	49 89 d0             	mov    %rdx,%r8
  402a46:	48 89 f9             	mov    %rdi,%rcx
  402a49:	48 89 f2             	mov    %rsi,%rdx
  402a4c:	be 99 3a 00 00       	mov    $0x3a99,%esi
  402a51:	bf 81 2e 40 00       	mov    $0x402e81,%edi
  402a56:	e8 9c f6 ff ff       	callq  4020f7 <submitr>
  402a5b:	eb 0e                	jmp    402a6b <driver_post+0x68>
  402a5d:	66 c7 03 4f 4b       	movw   $0x4b4f,(%rbx)
  402a62:	c6 43 02 00          	movb   $0x0,0x2(%rbx)
  402a66:	b8 00 00 00 00       	mov    $0x0,%eax
  402a6b:	48 83 c4 10          	add    $0x10,%rsp
  402a6f:	5b                   	pop    %rbx
  402a70:	c3                   	retq   
  402a71:	66 2e 0f 1f 84 00 00 	nopw   %cs:0x0(%rax,%rax,1)
  402a78:	00 00 00 
  402a7b:	0f 1f 44 00 00       	nopl   0x0(%rax,%rax,1)

0000000000402a80 <check>:
  402a80:	89 fa                	mov    %edi,%edx
  402a82:	c1 ea 1c             	shr    $0x1c,%edx
  402a85:	b8 00 00 00 00       	mov    $0x0,%eax
  402a8a:	85 d2                	test   %edx,%edx
  402a8c:	74 2e                	je     402abc <check+0x3c>
  402a8e:	40 80 ff 0a          	cmp    $0xa,%dil
  402a92:	74 17                	je     402aab <check+0x2b>
  402a94:	b9 08 00 00 00       	mov    $0x8,%ecx
  402a99:	89 f8                	mov    %edi,%eax
  402a9b:	d3 e8                	shr    %cl,%eax
  402a9d:	3c 0a                	cmp    $0xa,%al
  402a9f:	74 10                	je     402ab1 <check+0x31>
  402aa1:	83 c1 08             	add    $0x8,%ecx
  402aa4:	83 f9 20             	cmp    $0x20,%ecx
  402aa7:	75 f0                	jne    402a99 <check+0x19>
  402aa9:	eb 0c                	jmp    402ab7 <check+0x37>
  402aab:	b8 00 00 00 00       	mov    $0x0,%eax
  402ab0:	c3                   	retq   
  402ab1:	b8 00 00 00 00       	mov    $0x0,%eax
  402ab6:	c3                   	retq   
  402ab7:	b8 01 00 00 00       	mov    $0x1,%eax
  402abc:	f3 c3                	repz retq 

0000000000402abe <gencookie>:
  402abe:	53                   	push   %rbx
  402abf:	83 c7 01             	add    $0x1,%edi
  402ac2:	e8 39 e1 ff ff       	callq  400c00 <srandom@plt>
  402ac7:	e8 54 e2 ff ff       	callq  400d20 <random@plt>
  402acc:	89 c3                	mov    %eax,%ebx
  402ace:	89 c7                	mov    %eax,%edi
  402ad0:	e8 ab ff ff ff       	callq  402a80 <check>
  402ad5:	85 c0                	test   %eax,%eax
  402ad7:	74 ee                	je     402ac7 <gencookie+0x9>
  402ad9:	89 d8                	mov    %ebx,%eax
  402adb:	5b                   	pop    %rbx
  402adc:	c3                   	retq   
  402add:	0f 1f 00             	nopl   (%rax)

0000000000402ae0 <__libc_csu_init>:
  402ae0:	41 57                	push   %r15
  402ae2:	41 89 ff             	mov    %edi,%r15d
  402ae5:	41 56                	push   %r14
  402ae7:	49 89 f6             	mov    %rsi,%r14
  402aea:	41 55                	push   %r13
  402aec:	49 89 d5             	mov    %rdx,%r13
  402aef:	41 54                	push   %r12
  402af1:	4c 8d 25 18 13 20 00 	lea    0x201318(%rip),%r12        # 603e10 <__frame_dummy_init_array_entry>
  402af8:	55                   	push   %rbp
  402af9:	48 8d 2d 18 13 20 00 	lea    0x201318(%rip),%rbp        # 603e18 <__init_array_end>
  402b00:	53                   	push   %rbx
  402b01:	4c 29 e5             	sub    %r12,%rbp
  402b04:	31 db                	xor    %ebx,%ebx
  402b06:	48 c1 fd 03          	sar    $0x3,%rbp
  402b0a:	48 83 ec 08          	sub    $0x8,%rsp
  402b0e:	e8 9d e0 ff ff       	callq  400bb0 <_init>
  402b13:	48 85 ed             	test   %rbp,%rbp
  402b16:	74 1e                	je     402b36 <__libc_csu_init+0x56>
  402b18:	0f 1f 84 00 00 00 00 	nopl   0x0(%rax,%rax,1)
  402b1f:	00 
  402b20:	4c 89 ea             	mov    %r13,%rdx
  402b23:	4c 89 f6             	mov    %r14,%rsi
  402b26:	44 89 ff             	mov    %r15d,%edi
  402b29:	41 ff 14 dc          	callq  *(%r12,%rbx,8)
  402b2d:	48 83 c3 01          	add    $0x1,%rbx
  402b31:	48 39 eb             	cmp    %rbp,%rbx
  402b34:	75 ea                	jne    402b20 <__libc_csu_init+0x40>
  402b36:	48 83 c4 08          	add    $0x8,%rsp
  402b3a:	5b                   	pop    %rbx
  402b3b:	5d                   	pop    %rbp
  402b3c:	41 5c                	pop    %r12
  402b3e:	41 5d                	pop    %r13
  402b40:	41 5e                	pop    %r14
  402b42:	41 5f                	pop    %r15
  402b44:	c3                   	retq   
  402b45:	90                   	nop
  402b46:	66 2e 0f 1f 84 00 00 	nopw   %cs:0x0(%rax,%rax,1)
  402b4d:	00 00 00 

0000000000402b50 <__libc_csu_fini>:
  402b50:	f3 c3                	repz retq 

Disassembly of section .fini:

0000000000402b54 <_fini>:
  402b54:	48 83 ec 08          	sub    $0x8,%rsp
  402b58:	48 83 c4 08          	add    $0x8,%rsp
  402b5c:	c3                   	retq   
